(dp1
S'Juniper | Windows | 2000 | authentication server'
p2
(lp3
S'Juniper Steel-Belted Radius (SBR) server (runs Win2K SP4)'
p4
asS'D-Link | embedded || switch'
p5
(lp6
S'D-Link DES-3010G switch'
p7
aS'D-Link DGS-3324SR or DSG-3612G switch'
p8
asS'Intel | embedded || switch'
p9
(lp10
S'Intel 510T switch'
p11
asS'Cabletron | embedded || switch'
p12
(lp13
S'Cabletron Systems ELS100-24TXM Switch'
p14
asS'Linksys | embedded || bridge'
p15
(lp16
S'Linksys WET54G wireless bridge'
p17
asS'Minix | Minix || general purpose'
p18
(lp19
S'Minix 3.1.2a'
p20
asS'Ricoh | embedded || printer'
p21
(lp22
S'Ricoh Aficio 1060 copier'
p23
aS'Ricoh Aficio 2035e printer'
p24
aS'Ricoh Aficio 3045/3245C multifunction printer'
p25
asS'Allen-Bradley | embedded || specialized'
p26
(lp27
S'Allen-Bradley 1756 ControlLogix programmable automation controller'
p28
asS'Microsoft | embedded || game console'
p29
(lp30
S'Microsoft Xbox (modified, running XboxMediaCenter)'
p31
asS'HP | OpenVMS | 7.X | general purpose'
p32
(lp33
S'HP OpenVMS v7.2-1'
p34
aS'HP OpenVMS v7.3-2 on Alpha'
p35
asS'Cisco | IOS | 12.X | WAP'
p36
(lp37
S'Cisco 1131AG WAP (IOS 12.3)'
p38
aS'Cisco Aironet 1100 or 1242G WAP (IOS 12.3 - 12.4)'
p39
aS'Cisco Aironet 1200 WAP (IOS 12.3)'
p40
aS'Cisco Aironet 1230 or 1240-series WAP (IOS 12.3)'
p41
aS'Cisco Aironet 350 or 1200 WAP'
p42
aS'Cisco Aironet 350, 1100, or 1200 WAP; or C2600 router (IOS 12.3)'
p43
asS'DEC | TOPS-20 || general purpose'
p44
(lp45
S'DEC TOPS-20'
p46
asS'Allied Telesyn | embedded || switch'
p47
(lp48
S'Allied Telesyn 8326GB switch'
p49
aS'Allied Telesyn AT-9448Ts/XP switch'
p50
aS'Allied Telesyn AT-GS950/24 Gigabit Ethernet Switch'
p51
aS'Allied Telesyn Rapier G6 switch'
p52
asS'TRENDnet | embedded || WAP'
p53
(lp54
S'D-Link DWL-624+ or TRENDnet TEW-432BRP wireless broadband router'
p55
aS'TRENDnet TEW-431BRP wireless broadband router'
p56
asS'Polycom | embedded || webcam'
p57
(lp58
S'Polycom ViewStation DCP 7.5.2 video conferencing system'
p59
aS'Polycom ViewStation video conferencing system'
p60
aS'Polycom VSFX4 video conferencing system'
p61
aS'Polycom VSX 7000a video conferencing system'
p62
aS'Polycom VSX 7000e/8000 video conferencing system'
p63
asS'2Wire | embedded || WAP'
p64
(lp65
S'2Wire 1701HG wireless ADSL modem'
p66
aS'2Wire 2700HG, 2700HG-B, 2701HG-B, or RG2701HG wireless ADSL modem'
p67
aS'2Wire Shasta wireless broadband router'
p68
asS'Kaiomy | embedded || WAP'
p69
(lp70
S'Kaiomy AL-2014PW wireless ADSL modem'
p71
asS'Fujitsu Siemens | BS2000/OSD || general purpose'
p72
(lp73
S'Fujitsu Siemens BS2000/OSD'
p74
asS'HP | embedded || printer'
p75
(lp76
S'HP 3550 Color LaserJet printer'
p77
aS'HP 9100c Digital Sender printer (J3113A)'
p78
aS'HP 9100c Digital Sender scan-to-email device'
p79
aS'HP DeskJet 6127 or Photosmart 8400 printer'
p80
aS'HP LaserJet (1020-, 2010-, 2600-, 2800-, 3050-, or 3390-series), or Brother HL-5250DN printer'
p81
aS'HP LaserJet 1017 printer'
p82
aS'HP LaserJet 1200 printer'
p83
aS'HP LaserJet 1320'
p84
aS'HP LaserJet 2200dtn printer'
p85
aS'HP LaserJet 2420 printer or IBM DF-4000 ProFibre Storage Array'
p86
aS'HP LaserJet 2600n or 3055 printer'
p87
aS'HP LaserJet 3030 printer'
p88
aS'HP LaserJet 3600 printer (J7973E)'
p89
aS'HP LaserJet 4000TN printer'
p90
aS'HP LaserJet 4050'
p91
aS'HP LaserJet 4050 or 4000n printer or JetDirect EX Plus 3 print server'
p92
aS'HP LaserJet 4050/4200/4600/5100 (JetDirect) printer'
p93
aS'HP LaserJet 4100 printer'
p94
aS'HP LaserJet 4100N printer'
p95
aS'HP LaserJet 4250 (JetDirect) printer'
p96
aS'HP LaserJet 4250 printer (J7949E)'
p97
aS'HP LaserJet 4250dtn, 4345, or 9040 (JetDirect) printer'
p98
aS'HP LaserJet 4300 JetDirect FW R.25.57'
p99
aS'HP LaserJet 4350 printer'
p100
aS'HP LaserJet 4Si printer'
p101
aS'HP LaserJet 5M printer'
p102
aS'HP LaserJet 8100 Series printer'
p103
aS'HP LaserJet P3005 or CP4005 printer'
p104
aS'HP LaserJet printer (4050, 4100, 4200, or 8150)'
p105
aS'HP Photosmart All-in-One (2575, PSC5100, C6100, or C6180), DeskJet 6940 or 6980, or OfficeJet 6300-series or L7600 printer'
p106
asS'Redback | SmartEdge OS | 5.0.3.2 | broadband router'
p107
(lp108
S'Redback Networks SmartEdge router running SmartEdge OS 5.0.3.2-Release'
p109
asS'Planet | embedded || WAP'
p110
(lp111
S'Planet Technology WAP-4000 v2 WAP'
p112
asS'CastleNet | embedded || broadband router'
p113
(lp114
S'Zoom X5 ADSL modem'
p115
asS'Linux | Linux | 2.6.X | storage-misc'
p116
(lp117
S'Linksys NSLU2 NAS device running SlugOS/LE (Linux 2.6.16)'
p118
asS'Bay Networks | embedded || switch'
p119
(lp120
S'Bay Networks BayStack 450 switch'
p121
asS'Packeteer | embedded || firewall'
p122
(lp123
S'Packeteer PacketShaper firewall version 5.2.0'
p124
asS'Cisco | embedded || load balancer'
p125
(lp126
S'Cisco SCE 2020 Service Control Engine load balancer'
p127
asS'MikroTik | RouterOS | 2.X | software router'
p128
(lp129
S'MicroTik RouterOS 2.9.46'
p130
asS'HP | Windows | PocketPC/CE | terminal'
p131
(lp132
S'HP Compaq t5520 thin client'
p133
asS'Sling | embedded || media device'
p134
(lp135
S'Slingbox Classic TV over IP gateway (Firmware 1.0.89)'
p136
aS'Slingbox SOLO TV over IP gateway'
p137
aS'Slingmedia Slingbox AV TV over IP gateway'
p138
asS'Priva | embedded || specialized'
p139
(lp140
S'Priva building management system'
p141
asS'Linksys | Linux | 2.4.X | webcam'
p142
(lp143
S'Linksys WVC54G or Siemens Gigaset wireless webcam'
p144
asS'Sony Ericsson | embedded || phone'
p145
(lp146
S'Sony Ericsson W910i mobile phone'
p147
asS'Netopia | embedded || broadband router'
p148
(lp149
S'Netopia 3346N or 3397GPB ADSL router'
p150
asS'Compex | embedded || WAP'
p151
(lp152
S'Compex WPE54G WAP, Hitachi WMS 100 SAN controller, Inter-tel 8662 VoIP phone, Netgear SC101 Storage Central NAS device, or Xerox Phaser 6120/N printer'
p153
asS'NetOptics | embedded || switch'
p154
(lp155
S'NetOptics iBypass switch'
p156
asS'Motorola | embedded || media device'
p157
(lp158
S'Motorola QIP2500 set top box'
p159
asS'Avocent | embedded || specialized'
p160
(lp161
S'Avocent DSR1030 KVM over IP switch'
p162
asS'Symbol | Windows | PocketPC/CE | specialized'
p163
(lp164
S'Symbol MC9060-G mobile computer (runs Microsoft Windows CE .NET 4.20)'
p165
asS'Intracom | embedded || broadband router'
p166
(lp167
S'Belkin F5D7632-4 wireless broadband router or Intracom Jetspeed 500i ADSL router'
p168
asS'Linux | Linux | 2.2.X | general purpose'
p169
(lp170
S'Linux 2.2.13 (SuSE 6.3)'
p171
aS'Linux 2.2.5 - 2.2.14 (Red Hat 6.0 - 6.2)'
p172
asS'Cobalt | Linux | 2.0.X | general purpose'
p173
(lp174
S'Cobalt Qube 1 2700WG (Linux 2.0.34)'
p175
asS'SCO | UnixWare | 7.X | general purpose'
p176
(lp177
S'SCO UnixWare 7.1.1'
p178
aS'SCO UnixWare 7.1.3'
p179
asS'Nokia | Symbian OS || phone'
p180
(lp181
S'Nokia E60 mobile phone (Symbian OS)'
p182
aS'Nokia E61 or E65 mobile phone (Symbian OS)'
p183
aS'Nokia E70 mobile phone (Symbian OS)'
p184
asS'Sony Ericsson | Symbian OS | 9.X | phone'
p185
(lp186
S'Sony Ericsson M600i mobile phone (Symbian OS 9.1)'
p187
asS'Modtronix | embedded || specialized'
p188
(lp189
S'Modtronix single-board computer SBC65EC v3.03'
p190
asS'NetBSD | NetBSD | 4.X | general purpose'
p191
(lp192
S'NetBSD 4.0_BETA2, Feb. 21st CVS snapshot'
p193
aS'NetBSD 4.99.4 (x86)'
p194
asS'Apple | Mac OS X | 10.5.X | general purpose'
p195
(lp196
S'Apple Mac OS X 10.5 (Leopard) (Darwin 9.0.0)'
p197
aS'Apple Mac OS X 10.5 (Leopard) (Darwin 9.0.0, PowerPC)'
p198
aS'Apple Mac OS X 10.5 (Leopard) (Darwin 9.0.0, x86)'
p199
aS'Apple Mac OS X 10.5 (Leopard) (Darwin 9.0.0b4, x86)'
p200
aS'Apple Mac OS X 10.5 (Leopard) (Darwin 9.0.0b5 - 9.1.0)'
p201
aS'Apple Mac OS X Server 10.5 (Leopard) pre-release build 9A284'
p202
asS'Linksys | embedded || broadband router'
p203
(lp204
S'Linksys BEFSR41 EtherFast broadband router or D-Link DCS-6620G webcam'
p205
aS'Linksys BEFCMU10 cable modem'
p206
aS'Linksys BEFSR41 EtherFast broadband router'
p207
aS'Linksys WRV200 wireless broadband router'
p208
aS'Linksys BEFSR41 WAP or RT31P2 broadband router'
p209
asS'HP | HP-UX | 11.X | general purpose'
p210
(lp211
S'HP HP-UX B.11.00'
p212
aS'HP HP-UX B.11.11 - B.11.23'
p213
aS'HP HP-UX B.11.23'
p214
aS'HP HP-UX B.11.31'
p215
aS'HP-UX B.11.11'
p216
asS'Secure Computing | Linux | 2.4.X | firewall'
p217
(lp218
S'Fortinet FortiGate-60 firewall, Linksys NSLU2 NAS device running Unslung 5.8 (Linux 2.4.22), Netgear SPH200D VoIP phone, Secure Computing SnapGear SG565 firewall (Linux 2.4.31-uc0), or Adaptec Snap Server 520 NAS device'
p219
aS'Secure Computing SG560 Firewall (Linux 2.4.31-uc0 based)'
p220
asS'Sun | Solaris | 2.X | general purpose'
p221
(lp222
S'Sun Solaris 2.5.1 (SPARC)'
p223
aS'Sun Solaris 2.6 (SPARC)'
p224
asS'SGI | IRIX | 6.X | general purpose'
p225
(lp226
S'IRIX 6.5.30'
p227
aS'SGI IRIX 6.5'
p228
aS'SGI IRIX 6.5.22m'
p229
aS'SGI IRIX64 6.5'
p230
aS'SGI IRIX64 6.5.15m'
p231
aS'SGI IRIX64 6.5.30m'
p232
asS'BinTec | embedded || router'
p233
(lp234
S'BinTec X4000 access router'
p235
asS'Linksys | Linux | 2.4.X | WAP'
p236
(lp237
S'Linksys WRT54GS WAP (Linux kernel)'
p238
asS'Foundry | IronWare | 3.X | switch'
p239
(lp240
S'Foundry BigIron RX switch, NetIron MLX switch, or NetIron 4000 XMR switch (IronWare 2.2.1 - 3.6.0)'
p241
aS'Foundry FastIron 4802 or FESX switch'
p242
asS'Apple | embedded || WAP'
p243
(lp244
S'Apple Airport Express WAP v6.3 or Canon imageRUNNER multifunction printer (5055, C3045, C3380, or C5185)'
p245
asS'Nut/OS | Nut/OS | 4.X | general purpose'
p246
(lp247
S'Nut/OS 4.3.2 beta (ARM)'
p248
asS'NetBSD | NetBSD | 1.X | general purpose'
p249
(lp250
S'NetBSD 1.5.2, Lanier LS232c multifunction printer or Panasonic Network Camera (BB-HCM331, BB-HCM381, BCL-30A, BL-C1CE, or BL-C10CE)'
p251
asS'Microsoft | Windows | 98 | general purpose'
p252
(lp253
S'Microsoft Windows 98'
p254
aS'Microsoft Windows 98 SE'
p255
aS'Microsoft Windows 98 SE (no service pack)'
p256
asS'Siemens | SINIX || general purpose'
p257
(lp258
S'Siemens SINIX-D on x86'
p259
aS'Siemens SINIX-Z on RM400'
p260
asS'Netgear | embedded || WAP'
p261
(lp262
S'Broadband router (Actiontec GT701-WG or GT724-WG; BeWAN 770G ADSL2+; D-Link 500T; Linksys WAG54G, WAG354G, or RTP300; Netgear DG834G, or WELL PTI-850G)'
p263
aS'Actiontec MI-424-WR wireless broadband router (Linux 2.4.21), HP Brocade 4100 switch, or Netgear WNR834B wireless broadband router'
p264
aS'AVM Fritz!Box FON 7050, Linksys WAG200G, or Netgear DG834GT wireless broadband router'
p265
aS'Netgear WPN824 WAP, Linksys WAP51AB or WAP55AG WAP, or ReplayTV 5500 DVR'
p266
aS'Netgear DG834G WAP (firmware 4.01.19)'
p267
aS'Netgear DG834PN RangeMax wireless broadband router'
p268
aS'Netgear WGR614v6 wireless broadband router'
p269
aS'Netgear WGR614v7 wireless broadband router'
p270
asS'IBM | z/OS || general purpose'
p271
(lp272
S'IBM z/OS v1r8'
p273
asS'BeWAN | embedded || WAP'
p274
(lp275
g263
asS'Cisco | CatOS | 8.X | switch'
p276
(lp277
S'Cisco Catalyst 4003, 4006, or 6509 switch (CatOS 7.6(17) - 8.4(3))'
p278
aS'Cisco Catalyst WS-C4506 switch (CatOS 8.1(1))'
p279
asS'Netgear | embedded || media device'
p280
(lp281
S'Netgear EVA700 Digital Entertainer set top box'
p282
asS'HP | Tru64 UNIX | 5.X | general purpose'
p283
(lp284
S'HP Tru64 UNIX 5.1 (Alpha)'
p285
aS'HP Tru64 UNIX 5.1A'
p286
asS'Captor | embedded || specialized'
p287
(lp288
S'Captor Omni-Clock (employee timeclock)'
p289
asS'Anue | embedded || specialized'
p290
(lp291
S'Anue X/GEM ethernet network simulator'
p292
asS'Tut Systems | embedded || router'
p293
(lp294
S'Tut Systems SMS2000 subscriber management system'
p295
asS'Belkin | embedded || WAP'
p296
(lp297
g168
aS'Belkin Wireless Pre-N Router'
p298
asS'Newave | embedded || power-device'
p299
(lp300
S'Newave UPS SNMP adapter'
p301
asS'Check Point | IPSO || firewall'
p302
(lp303
S'Check Point VPN-1 running IPSO 4.1'
p304
asS'IBM | embedded || storage-misc'
p305
(lp306
g86
asS'Apple | Mac OS X | 10.2.X | general purpose'
p307
(lp308
S'Apple Mac OS X Server 10.2.8 (Jaguar) (Darwin 6.8, PowerPC)'
p309
asS'Cisco | IOS | 11.X | switch'
p310
(lp311
S'Cisco 2900XL switch (IOS 11.2)'
p312
asS'AXIS | embedded || webcam'
p313
(lp314
S'AXIS 2100 Network Camera'
p315
asS'Apple | Mac OS | 8.X | general purpose'
p316
(lp317
S'Mac OS 8.1 - 8.6'
p318
asS'DEC | Digital UNIX | 4.X | general purpose'
p319
(lp320
S'DEC Digital UNIX OSF1 v4.0 1229'
p321
aS'DEC Digital UNIX v4.0F'
p322
asS'NeXT | OPENSTEP || general purpose'
p323
(lp324
S'NeXT NEXTSTEP 3.3 (patch level 3, m68k) or OPENSTEP 4.2'
p325
aS'NeXT OPENSTEP 4.2'
p326
asS'FON | Linux | 2.4.X | WAP'
p327
(lp328
S'FON La Fonera WAP (OpenWrt, Linux 2.4.32)'
p329
aS'FON La Fonera WAP running OpenWrt w/Linux kernel 2.4.32'
p330
asS'Packet8 | embedded || VoIP adapter'
p331
(lp332
S'Packet8 BPA410 broadband phone adapter'
p333
asS'D-Link | embedded || webcam'
p334
(lp335
S'D-Link DCS-3220 webcam'
p336
ag205
asS'Microsoft | Windows | Me | general purpose'
p337
(lp338
S'Microsoft Windows Millennium Edition (Me)'
p339
asS'Cisco | embedded || firewall'
p340
(lp341
S'Cisco MARS 50 firewall version 4.2.1'
p342
asS'Minolta | embedded || printer'
p343
(lp344
S'Minolta Di550 laser printer'
p345
asS'Avaya | embedded || telecom-misc'
p346
(lp347
S'Avaya Intuity Audix Multimedia Messaging System'
p348
asS'Polycom | embedded || VoIP phone'
p349
(lp350
S'Polycom SoundPoint 501 IP phone'
p351
aS'Polycom SoundPoint 601 IP phone'
p352
aS'Polycom SoundPoint IP 301 VoIP phone'
p353
aS'Polycom SoundPoint IP 430 VoIP phone'
p354
asS'Microsoft | Windows | PocketPC/CE | specialized'
p355
(lp356
S'Microsoft Windows CE 5.0 (ARM)'
p357
asS'Apple | Mac OS X | 10.4.X | general purpose'
p358
(lp359
S'Apple Mac OS X 10.3.9 (Panther) - 10.4.7 (Tiger) (Darwin 7.9.0 - 8.7.8, PowerPC)'
p360
aS'Apple Mac OS X 10.4 (Tiger) (Darwin 8.10.0, PowerPC)'
p361
aS'Apple Mac OS X 10.4 (Tiger) (Darwin 8.10.0, x86)'
p362
aS'Apple Mac OS X 10.4.10 (Tiger) (Darwin 8.10.0 - 8.11.0)'
p363
aS'Apple Mac OS X 10.4.10 (Tiger) (Darwin 8.10.0 - 8.11.1)'
p364
aS'Apple Mac OS X 10.4.10 (Tiger) (Darwin 8.10.0, PowerPC)'
p365
aS'Apple Mac OS X 10.4.10 (Tiger) (Darwin 8.10.1)'
p366
aS'Apple Mac OS X 10.4.8 (Tiger) (Darwin 8.8.0 - 8.9.0, PowerPC)'
p367
aS'Apple Mac OS X 10.4.8 (Tiger) (PowerPC)'
p368
aS'Apple Mac OS X 10.4.8 - 10.4.10 (Tiger) (Darwin 8.10.1, PowerPC)'
p369
aS'Apple Mac OS X 10.4.8 - 10.4.10 (Tiger) (Darwin 8.8.0 - 8.10.2)'
p370
aS'Apple Mac OS X 10.4.9 (Tiger) (PowerPC)'
p371
aS'Mac OS X Server 10.4.9 (Tiger) (Darwin 8.9.0, PowerPC)'
p372
asS'On Time | RTOS || specialized'
p373
(lp374
S'On Time RTOS'
p375
asS'Telekom | embedded || broadband router'
p376
(lp377
S'T-Sinus 130 DSL router'
p378
asS'Symbol | embedded || WAP'
p379
(lp380
S'Symbol Spectrum24 4131 Access Point'
p381
aS'Symbol WS5000 wireless switch'
p382
asS'RAD Data Communications | embedded || switch'
p383
(lp384
S'Cisco Catalyst 1900 switch or RAD IPMUX-1 TDM-over-IP multiplexer'
p385
aS'RAD ACE-3200 telephony switch'
p386
asS'MOXA | embedded || specialized'
p387
(lp388
S'MOXA NPort 5110 serial device server'
p389
aS'MOXA NPort 5210 serial device server'
p390
aS'MOXA NPort Express 2.5'
p391
asS'Linux | Linux | 2.6.X | general purpose'
p392
(lp393
S'Linux 2.6.20-15-generic (Ubuntu 7.04, x86, SMP)'
p394
aS'Linux 2.6.11 (Fedora Code 3, SMP, x86)'
p395
aS'Linux 2.6.11 - 2.6.19'
p396
aS'Linux 2.6.11 - 2.6.20'
p397
aS'Linux 2.6.11 - 2.6.22'
p398
aS'Linux 2.6.11-auditor-10 (Auditor CD, x86)'
p399
aS'Linux 2.6.13 - 2.6.19'
p400
aS'Linux 2.6.13 - 2.6.20'
p401
aS'Linux 2.6.13 - 2.6.21'
p402
aS'Linux 2.6.14 - 2.6.16'
p403
aS'Linux 2.6.14 - 2.6.20'
p404
aS'Linux 2.6.14-gentoo-r2 (Gentoo, x86)'
p405
aS'Linux 2.6.14.7 (PLD Linux, x86)'
p406
aS'Linux 2.6.15 - 2.6.16'
p407
aS'Linux 2.6.15 - 2.6.18'
p408
aS'Linux 2.6.15 - 2.6.20'
p409
aS'Linux 2.6.15 - 2.6.21'
p410
aS'Linux 2.6.15 - 2.6.23'
p411
aS'Linux 2.6.15-27 (Ubuntu 6.06)'
p412
aS'Linux 2.6.15-27 (Ubuntu)'
p413
aS'Linux 2.6.15-28-amd64-server (Ubuntu, x86_64, SMP)'
p414
aS'Linux 2.6.15.4'
p415
aS'Linux 2.6.16 - 2.6.20'
p416
aS'Linux 2.6.16.21 (openSUSE 10.2, x86_64)'
p417
aS'Linux 2.6.16.27 (Fli4L 3.1.1)'
p418
aS'Linux 2.6.17 (Debian)'
p419
aS'Linux 2.6.17 (Gentoo, x86)'
p420
aS'Linux 2.6.17 (Mandriva)'
p421
aS'Linux 2.6.17 (x86)'
p422
aS'Linux 2.6.17 - 2.6.18'
p423
aS'Linux 2.6.17 - 2.6.18 (x86)'
p424
aS'Linux 2.6.17 - 2.6.18 (x86_64, SMP)'
p425
aS'Linux 2.6.17 - 2.6.19 (x86)'
p426
aS'Linux 2.6.17 - 2.6.20'
p427
aS'Linux 2.6.17 - 2.6.21'
p428
aS'Linux 2.6.17 - 2.6.21 (x86)'
p429
aS'Linux 2.6.17 - 2.6.22'
p430
aS'Linux 2.6.17 - 2.6.23'
p431
aS'Linux 2.6.17-11-generic (Ubuntu, x86_64)'
p432
aS'Linux 2.6.17-gentoo-r4 (Gentoo, x86_64)'
p433
aS'Linux 2.6.17.13 (Slackware 11.0, x86)'
p434
aS'Linux 2.6.18'
p435
aS'Linux 2.6.18 (CentOS 5, x86_64, SMP)'
p436
aS'Linux 2.6.18 (Debian 4.0, x86)'
p437
aS'Linux 2.6.18 (Debian Sid)'
p438
aS'Linux 2.6.18 (Debian, x86)'
p439
aS'Linux 2.6.18 (Gentoo, x86)'
p440
aS'Linux 2.6.18 (Slackware 11.0)'
p441
aS'Linux 2.6.18 (SMP)'
p442
aS'Linux 2.6.18 - 2.6.20'
p443
aS'Linux 2.6.18 - 2.6.22'
p444
aS'Linux 2.6.18-8.el5 (Red Hat Enterprise Linux 5, x86_64, SMP)'
p445
aS'Linux 2.6.18-8.el5 (Red Hat Enterprise Linux Server 5, x86_64, SMP)'
p446
aS'Linux 2.6.18-em64t (x86-64)'
p447
aS'Linux 2.6.18.5 (Ubuntu, x86)'
p448
aS'Linux 2.6.18.8 (openSUSE 10.2)'
p449
aS'Linux 2.6.18.8 (openSUSE 10.2, SMP)'
p450
aS'Linux 2.6.18.pi (x86)'
p451
aS'Linux 2.6.19'
p452
aS'Linux 2.6.19 (Gentoo)'
p453
aS'Linux 2.6.19 - 2.6.20 (Gentoo)'
p454
aS'Linux 2.6.19 - 2.6.21'
p455
aS'Linux 2.6.19-2.6.23 (Debian)'
p456
aS'Linux 2.6.20'
p457
aS'Linux 2.6.20 (Fedora Core 6)'
p458
aS'Linux 2.6.20 (Ubuntu 7.04 server, x86)'
p459
aS'Linux 2.6.20 (Ubuntu 7.04)'
p460
aS'Linux 2.6.20 (Ubuntu 7.04, x86, SMP)'
p461
aS'Linux 2.6.20 (Ubuntu, x86, SMP)'
p462
aS'Linux 2.6.20-1 (Fedora Core 5)'
p463
aS'Linux 2.6.20-15-generic (x86, SMP)'
p464
aS'Linux 2.6.20-15-server (Ubuntu 7.04 server, x86)'
p465
aS'Linux 2.6.20-16 (x86, SMP)'
p466
aS'Linux 2.6.20-16-generic (Ubuntu, x86, SMP)'
p467
aS'Linux 2.6.20-gentoo-r8 (Gentoo, x86, SMP)'
p468
aS'Linux 2.6.20-grml #1 SMP PREEMPT Thu May 3 20:20:41 CEST 2007 i686 GNU/Linux'
p469
aS'Linux 2.6.20.6'
p470
aS'Linux 2.6.21'
p471
aS'Linux 2.6.21 (Arch Linux 0.8, x86)'
p472
aS'Linux 2.6.21 (Debian, x86)'
p473
aS'Linux 2.6.21-gentoo-r4 (PowerPC)'
p474
aS'Linux 2.6.21.1 (x86_64)'
p475
aS'Linux 2.6.22'
p476
aS'Linux 2.6.22 (SPARC)'
p477
aS'Linux 2.6.22 (Ubuntu 7.04, x86, SMP)'
p478
aS'Linux 2.6.22 - 2.6.23'
p479
aS'Linux 2.6.22.1-32.fc6 (x86, SMP)'
p480
aS'Linux 2.6.23'
p481
aS'Linux 2.6.5 - 2.6.18'
p482
aS'Linux 2.6.5 - 2.6.9'
p483
aS'Linux 2.6.5 - 2.6.9 (x86)'
p484
aS'Linux 2.6.5-7.283-smp (SuSE Enterprise Server 9, x86)'
p485
aS'Linux 2.6.8'
p486
aS'Linux 2.6.8 (Debian Sarge)'
p487
aS'Linux 2.6.8 (Debian, x86)'
p488
aS'Linux 2.6.9'
p489
aS'Linux 2.6.9 (CentOS 4.4 or ClarkConnect)'
p490
aS'Linux 2.6.9 (CentOS 4.4)'
p491
aS'Linux 2.6.9 (CentOS 4.5, x86)'
p492
aS'Linux 2.6.9 - 2.6.11'
p493
aS'Linux 2.6.9 - 2.6.15'
p494
aS'Linux 2.6.9 - 2.6.15 (x86)'
p495
aS'Linux 2.6.9 - 2.6.20'
p496
aS'Linux 2.6.9 - 2.6.20 (Fedora Core 5 or 6)'
p497
aS'Linux 2.6.9 - 2.6.21'
p498
aS'Linux 2.6.9-022stab078.19-enterprise (CentOS 4.2 x86)'
p499
aS'Linux 2.6.9-22.0.1.EL (CentOS 4.4)'
p500
aS'Linux 2.6.9-42 (Red Hat ES4)'
p501
aS'Linux 2.6.9-42.0.2.EL (Red Hat Enterprise Linux)'
p502
aS'Linux 2.6.9-55.0.2.EL (Red Hat Enterprise Linux)'
p503
aS'OpenWrt Kamikaze 7.07 (Linux 2.6.22)'
p504
asS'Netgear | Linux | 2.4.X | WAP'
p505
(lp506
S'Netgear KWRGR614 wireless broadband router (Linux 2.4)'
p507
asS'HP | iLO || remote management'
p508
(lp509
S'HP Integrated Lights-Out (iLO) 100i Standard remote server management'
p510
aS'HP Integrated Lights-Out II remote server management'
p511
asS'Cisco | IOS | 12.X | router'
p512
(lp513
S'Cisco 1811 or 2800 router (IOS 12.4)'
p514
aS'Cisco 1812, 3640, or 3700 router (IOS 12.4)'
p515
aS'Cisco 2500-series router or Catalyst switch (IOS 12.1 or 12.2)'
p516
aS'Cisco 2514 router (IOS 12.1)'
p517
aS'Cisco 2600 router (IOS 12.1)'
p518
aS'Cisco 2620 router (IOS 12.3)'
p519
aS'Cisco 2821 router'
p520
aS'Cisco 7200 Series router'
p521
aS'Cisco 7206VXR router (IOS 12.4)'
p522
aS'Cisco 806, 1712, 1721, or 2600 router (IOS 12.2 - 12.3)'
p523
aS'Cisco 820, 1721, or 2514 router (IOS 12.3)'
p524
aS'Cisco 837, 850-series, 870, 2600, 2800, or 7000-series router (IOS 12.4)'
p525
aS'Cisco Catalyst 4506 switch (IOS 12.2)'
p526
aS'Cisco Catalyst C2900-series or C3750 switch, or 4500 router (IOS 12.1 - 12.2)'
p527
ag43
asS'ADIC | embedded || storage-misc'
p528
(lp529
S'ADIC Scalar 1000 tape library remote management unit'
p530
asS'FreeBSD | FreeBSD | 3.X | general purpose'
p531
(lp532
S'FreeBSD 3.5.1 (x86)'
p533
asS'FreeBSD | FreeBSD | 4.X | general purpose'
p534
(lp535
S'FreeBSD 4.10-RELEASE (x86)'
p536
aS'FreeBSD 4.10-RELEASE or 4.11-RELEASE (x86)'
p537
aS'FreeBSD 4.10-STABLE - 4.11-SECURITY'
p538
aS'FreeBSD 4.11-RELEASE'
p539
aS'FreeBSD 4.11-RELEASE (x86)'
p540
aS'FreeBSD 4.11-STABLE'
p541
aS'FreeBSD 4.3-RELEASE'
p542
asS'Airlink101 | embedded || print server'
p543
(lp544
S'Airlink101 APS MFP210 multi-functional print server'
p545
asS'DVTel | embedded || webcam'
p546
(lp547
S'DVTel DVT-9540DW network camera'
p548
asS'SMC | embedded || broadband router'
p549
(lp550
S'D-Link DI-524/DI-604 or SMC 7004VBR broadband router'
p551
asS'Roku | embedded || media device'
p552
(lp553
S'Roku HD1500 media player'
p554
asS'Enerdis | embedded || power-device'
p555
(lp556
S'Enerdis Enerium 200 energy monitoring device'
p557
asS'Hitachi | embedded || storage-misc'
p558
(lp559
g153
asS'WELL | embedded || WAP'
p560
(lp561
g263
asS'Mitel | embedded || VoIP gateway'
p562
(lp563
S'Mitel 3300 CXi VoIP PBX'
p564
asS'Sharp | Linux | 2.4.X | PDA'
p565
(lp566
S'QLogic SANbox2-8 FC switch or Sharp Zaurus PDA (Linux 2.4.18)'
p567
asS'Sony | Linux | 2.1.X | media device'
p568
(lp569
S'TiVo series 1 (Sony SVR-2000 or Philips HDR112) (Linux 2.1.24-TiVo-2.5 ppc)'
p570
asS'Secure Computing | embedded || firewall'
p571
(lp572
S'Secure Computing Sidewinder G2 firewall 6.1.2.0.3'
p573
asS'Barracuda Networks | embedded || firewall'
p574
(lp575
S'Barracuda Spam Firewall model 400'
p576
asS'Huawei | embedded || broadband router'
p577
(lp578
S'Huawei MT882 ADSL modem'
p579
aS'Huawei SmartAX MT800u-T ADSL router, ZyXEL ES-4024A switch, or ZyXEL Prestige 650HW ADSL router'
p580
aS'Huawei SmartAX MT880 ADSL modem'
p581
asS'Vodavi | embedded || PBX'
p582
(lp583
S'Vodavi XTS-IP PBX'
p584
asS'Motorola | embedded || broadband router'
p585
(lp586
S'Motorola SURFboard 5100i cable modem'
p587
aS'Motorola SURFboard SB5100E cable modem'
p588
aS'Motorola SURFboard SB5101 or Scientific Atlanta WebSTAR EPX2203 cable modem'
p589
aS'Motorola SURFboard SBG900 wireless cable modem'
p590
asS'Cisco | IOS | 11.X | router'
p591
(lp592
S'Cisco 2500 router (IOS 11.1)'
p593
asS'Mirapoint | embedded || mail server'
p594
(lp595
S'Mirapoint Messaging Operating System 3.6.5'
p596
asS'Sun | embedded || remote management'
p597
(lp598
g153
asS'Compaq | Tru64 UNIX | 5.X | general purpose'
p599
(lp600
S'Compaq Tru64 UNIX 5.1'
p601
aS'Compaq Tru64 UNIX 5.1B'
p602
asS'T-Home | embedded || WAP'
p603
(lp604
S'T-Home Speedport W 700V WAP'
p605
asS'Linux | Linux | 2.4.X | general purpose'
p606
(lp607
S'Linux 2.4.9 - 2.4.18'
p608
aS'Linux 2.4.18 - 2.4.32 (likely embedded)'
p609
aS'Linux 2.4.18-14 (Red Hat 8)'
p610
aS'Linux 2.4.2 (Red Hat 7.1)'
p611
aS'Linux 2.4.20 (Red Hat 7.2)'
p612
aS'Linux 2.4.20 - 2.4.33 (x86)'
p613
aS'Linux 2.4.21 (SuSE 9.1)'
p614
aS'Linux 2.4.21 - 2.4.33'
p615
aS'Linux 2.4.22 (Fedora Core 1, x86)'
p616
aS'Linux 2.4.22 (x86)'
p617
aS'Linux 2.4.27'
p618
aS'Linux 2.4.28 - 2.4.30'
p619
aS'Linux 2.4.31 (Slackware 10.2)'
p620
aS'Linux 2.4.31 (Slackware v10.2)'
p621
aS'Linux 2.4.31 w/grsec (x86)'
p622
aS'Linux 2.4.32 (x86)'
p623
asS'm0n0wall | FreeBSD | 4.X | firewall'
p624
(lp625
S'M0n0wall FreeBSD-based embedded firewall version 1.22 - 1.23b1'
p626
asS'Microsoft | Windows | PocketPC/CE | PDA'
p627
(lp628
S'Microsoft Windows CE 3.0 on HP Jornada 720'
p629
aS'PDA running Microsoft Windows Mobile 2003 PocketPC'
p630
asS'Xerox | embedded || printer'
p631
(lp632
g153
aS'HP WP110 print server or Xerox Document Centre 405 printer'
p633
aS'HP ProCurve 2650 switch, or Xerox Phaser 7400N or 8550DT printer'
p634
aS'Xerox DC220 printer'
p635
aS'Xerox DC440 or WorkCenter Pro 55 printer'
p636
aS'Xerox DocuPrint C525 A printer'
p637
aS'Xerox Phaser 3150 printer'
p638
aS'Xerox Phaser 6350DT printer'
p639
aS'Xerox Phaser 860N printer'
p640
aS'Xerox WorkCentre Pro 265 multifunction printer'
p641
asS'NRG | embedded || printer'
p642
(lp643
S'NRG DSc428 laser printer'
p644
asS'HP | embedded || switch'
p645
(lp646
g264
aS'HP 2424M ProCurve switch (J4093A)'
p647
aS'HP 4000M ProCurve switch (J4121A)'
p648
aS'HP Advanced Stack Switch 2000'
p649
aS'HP Brocade 1600 switch'
p650
aS'HP Brocade 4Gb SAN switch'
p651
aS'HP ProCurve 2524 switch'
p652
aS'HP ProCurve 2524 switch (J4813A)'
p653
ag634
aS'HP ProCurve 4000M switch (J4121A)'
p654
aS'HP ProCurve switch (2500-, 2600-, 2800-, or 5300xl-series)'
p655
aS'HP ProLiant BL p-Class C-Gbe2 switch'
p656
asS'Vegastream | embedded || VoIP gateway'
p657
(lp658
S'Vegastream Vega 400 VoIP Gateway'
p659
asS'Siemens | Linux | 2.4.X | webcam'
p660
(lp661
g144
asS'Nortel | embedded || PBX'
p662
(lp663
S'Nortel CS1000M VoIP PBX'
p664
asS'Synology | Linux | 2.4.X | storage-misc'
p665
(lp666
S'Embedded Linux 2.4.22 (Linksys NSLU2 NAS device or Synology DS-106j NAS server)'
p667
asS'Lucent | ComOS || terminal server'
p668
(lp669
S'Lucent PortMaster PM-25 terminal server (ComOS 3.9)'
p670
asS'Linksys | embedded || WAP'
p671
(lp672
g263
ag265
ag209
aS'Linksys BEFW11S4 WAP'
p673
aS'Linksys WAP54G WAP'
p674
aS'Linksys WRT300N wireless broadband router'
p675
ag266
asS'Cisco | embedded || broadband router'
p676
(lp677
S'Cisco 827H DSL router'
p678
asS'Avaya | embedded || VoIP gateway'
p679
(lp680
S'Avaya G700 Telephony Media Gateway'
p681
asS'OpenBSD | OpenBSD | 4.X | general purpose'
p682
(lp683
S'OpenBSD 3.9 - 4.2'
p684
aS'OpenBSD 4.0'
p685
aS'OpenBSD 4.0 (x86)'
p686
aS'OpenBSD 4.0 - 4.2'
p687
aS'OpenBSD 4.1 (x86)'
p688
aS'OpenBSD 4.2'
p689
asS'Huawei | embedded || router'
p690
(lp691
S'Huawei AR 28 router'
p692
asS'Scientific Atlanta | embedded || broadband router'
p693
(lp694
g589
aS'Scientific Alanta WebSTAR DPC2100 cable modem'
p695
aS'Scientific Atlanta WebSTAR EPC2203 cable modem'
p696
aS'Scientific Atlanta WebSTAR EPX2203 cable modem'
p697
asS'QNX | QNX | 6.X | general purpose'
p698
(lp699
S'QNX 6.2.1 (x86)'
p700
asS'SGI | IRIX | 4.X | general purpose'
p701
(lp702
S'SGI IRIX 4.0.5F'
p703
asS'Mitel | embedded || PBX'
p704
(lp705
S'Mitel 3300CX PBX controller (7.1 firmware)'
p706
asS'Microsoft | Windows | 95 | general purpose'
p707
(lp708
S'Microsoft Windows 95'
p709
aS'Windows 95 4.00.950B'
p710
asS'Linux | Linux | 2.6.X | specialized'
p711
(lp712
S'Google Mini search appliance v.4.6.4G66'
p713
aS'Linux 2.6.18 (Debian 4.0, x86)'
p714
aS'Linux 2.6.9-42.ELsmp (Red Hat Enterprise Linux AS release 4, x86_64)'
p715
asS'Oki Data | embedded || printer'
p716
(lp717
S'Oki Data C5510 multifunction printer'
p718
asS'Motorola | Windows | PocketPC/CE | media device'
p719
(lp720
S'Motorola VIP1200-series digital set top box'
p721
asS'BlueArc | embedded || storage-misc'
p722
(lp723
S'BlueArc Titan 2100 NAS device'
p724
asS'Sun | Solaris | 9 | general purpose'
p725
(lp726
S'Sun Solaris 9 (x86)'
p727
aS'Sun Solaris 9 or 10'
p728
aS'Sun Solaris 9 or 10 (SPARC)'
p729
asS'Brother | embedded || printer'
p730
(lp731
S'Brother DCP-540CN printer'
p732
aS'Brother DCP-8045D printer'
p733
aS'Brother HL-2070N printer'
p734
aS'Brother HL-5170DN printer'
p735
aS'Brother MFC-420CN multifunction printer'
p736
ag81
asS'Tandberg | Linux | 2.6.X | VoIP gateway'
p737
(lp738
S'Tandberg Border Controller VoIP gateway (Linux 2.6.11)'
p739
asS'Adtran | embedded || router'
p740
(lp741
S'Adtran NetVanta 3200 router'
p742
aS'Adtran Total Access 624 router'
p743
asS'Aastra | embedded || VoIP phone'
p744
(lp745
S'Aastra 9133i IP phone firmware version 1.4.1.1077'
p746
asS'OpenVZ | Linux | 2.6.X | general purpose'
p747
(lp748
S'OpenVZ Linux virtualization kernel (Linux 2.6.18-028stab023.1+31-openvz-smp)'
p749
asS'Aruba | embedded || switch'
p750
(lp751
S'Aruba 800 wireless LAN switch'
p752
asS'Network Systems | embedded || firewall'
p753
(lp754
S'Network Systems BorderGuard 1000 firewall'
p755
asS'Microsoft | embedded || WAP'
p756
(lp757
S'Microsoft MN-700 wireless broadband router'
p758
asS'Savin | embedded || printer'
p759
(lp760
S'Savin 8025e multifunction printer'
p761
asS'T-Home | embedded || media device'
p762
(lp763
S'T-Home X 300T Media Receiver set top box'
p764
asS'IBM | z/VM || general purpose'
p765
(lp766
S'IBM z/VM 4.2'
p767
asS'Yamaha | embedded || router'
p768
(lp769
S'Yamaha NetVolante RT58i router'
p770
asS'Konica Minolta | embedded || printer'
p771
(lp772
S'Konica Minolta Bizhub C450 copier with (default) Emperon Controller'
p773
aS'Konica Minolta Bizhub C450 copier with optional Fiery Controller'
p774
aS'Konica Minolta MagiColor 2430 printer'
p775
aS'Konica Minolta MagiColor 5430 DL printer'
p776
asS'IBM | z/OS | 1.6.X | general purpose'
p777
(lp778
S'IBM z/OS 1.6'
p779
asS'Lanier | embedded || printer'
p780
(lp781
g251
asS'Dream Multimedia | Linux | 2.6.X | media device'
p782
(lp783
S'Linux 2.6.9 - 2.6.19'
p784
asS'Microsoft | Windows | Longhorn | general purpose'
p785
(lp786
S'Microsoft Windows Longhorn'
p787
asS'AVM | embedded || WAP'
p788
(lp789
g265
asS'Blue Coat | SGOS | 3.X | web proxy'
p790
(lp791
S'Blue Coat proxy server (SGOS 3.2.4.8)'
p792
asS'Dedicated Micros | embedded || media device'
p793
(lp794
S'Dedicated Micros Digital Sprite 2 multi-channel DVR'
p795
asS'Nortel | embedded || switch'
p796
(lp797
S'Nortel 5520 ethernet routing switch'
p798
aS'Nortel DMS-10 telephony switch'
p799
asS'Juniper | JUNOS | 7.X | router'
p800
(lp801
S'Juniper Networks M10 or M320 router (JUNOS 7.4R3.4)'
p802
aS'Juniper Networks Olive (JUNOS 7.5-20060511, FreeBSD based)'
p803
asS'Airaya | embedded || bridge'
p804
(lp805
S'Airaya AI108-4958-O-300 wireless Ethernet bridge'
p806
asS'iDirect | Linux | 2.4.X | specialized'
p807
(lp808
S'iDirect Protocol Processor (Red Hat Enterprise Linux 3)'
p809
asS'Comtrend | embedded || VoIP gateway'
p810
(lp811
S'Comtrend CT-800 VoIP gateway'
p812
asS'APC | AOS | 2.X | power-device'
p813
(lp814
S'APC AP7851 metered rack power distribution unit (AOS 2.7.0)'
p815
asS'Raritan | embedded || specialized'
p816
(lp817
S'Raritan Dominion KX II KVM switch'
p818
asS'm0n0wall | FreeBSD | 5.X | firewall'
p819
(lp820
g626
asS'IBM | OS/2 || general purpose'
p821
(lp822
S'IBM OS/2 3.0 (Warp)'
p823
aS'IBM OS/2 Warp 4.0 (FixPak 15)'
p824
aS'IBM OS/2 Warp 4.50'
p825
asS'SONICblue | embedded || media device'
p826
(lp827
g266
asS'RCA | embedded || broadband router'
p828
(lp829
S'RCA DCM425C cable modem'
p830
asS'Ambit | embedded || broadband router'
p831
(lp832
S'AMBIT DOCSIS 2.0 Cable Modem hardware v4.7'
p833
asS'Cisco | embedded || WAP'
p834
(lp835
S'Compaq Remote Insight Lights-Out Edition II remote configuration board or Cisco Aironet 1010 WAP'
p836
asS'Motorola | embedded || bridge'
p837
(lp838
S'Motorola Canopy bridge'
p839
aS'Motorola Canopy router'
p840
asS'AXIS | embedded || print server'
p841
(lp842
S'AXIS 5400 Network Print Server V6.00'
p843
asS'Linksys | Linux | 2.4.X | storage-misc'
p844
(lp845
g219
asS'IBM | OS/400 | V5 | general purpose'
p846
(lp847
S'IBM OS/400 V5R1M0'
p848
aS'IBM OS/400 V5R2'
p849
aS'IBM OS/400 V5R2M0'
p850
aS'IBM OS/400 V5R3'
p851
asS'Westell | embedded || broadband router'
p852
(lp853
S'Westell WireSpeed Dual Connect broadband router'
p854
asS'Cisco | IOS | 12.X | specialized'
p855
(lp856
S'Cisco DOCSIS cable modem termination server (IOS 12.1)'
p857
asS'Linux | Linux | 2.4.X | WAP'
p858
(lp859
g608
aS'Buffalo WHR-G125 wireless broadband router running DD-WRT Linux 2.4.34'
p860
aS'Buffalo WHR-HP-G54 WAP or Linksys WRT54GL WAP running DD-WRT Linux 2.4.20 - 2.4.34'
p861
asS'Lancom | LCOS | 6.32.X | broadband router'
p862
(lp863
S'Lancom 1711 or 1821 broadband router'
p864
asS'Linksys | embedded || VoIP gateway'
p865
(lp866
S'Linksys PAP2T VoIP router'
p867
aS'Linksys SPA9000/SPA942 VoIP phone SPA3102 VoIP gateway, or Sipura SPA-2101 VoIP adapter'
p868
asS'ZyXEL | ZyNOS | 3.X | switch'
p869
(lp870
g580
asS'Compaq | embedded || remote management'
p871
(lp872
g836
asS'Quantum | embedded || storage-misc'
p873
(lp874
S'Quantum SuperLoader 3 tape autoloader'
p875
asS'SonicWALL | embedded || firewall'
p876
(lp877
S'SonicWALL Aventail EX-1500 SSL VPN appliance'
p878
asS'lwIP | lwIP | 1.1.X | general purpose'
p879
(lp880
S'lwIP 1.1.0 lightweight TCP/IP stack'
p881
asS'Symbol | embedded || switch'
p882
(lp883
S'Symbol AP-2411 switch'
p884
aS'Symbol AP-3021 switch'
p885
asS'Huawei | VRP | 3.X | switch'
p886
(lp887
S'Huawei S3928P-EI switch (VRP 3.10)'
p888
asS'SCO | OpenServer | 5.X | general purpose'
p889
(lp890
S'SCO OpenServer 5.0.7'
p891
aS'SCO OpenServer 5.0.7 (x86)'
p892
aS'SCO OpenServer 5.05'
p893
asS'Oki | embedded || printer'
p894
(lp895
S'OKI C5600 color laser network printer'
p896
asS'Buffalo | embedded || storage-misc'
p897
(lp898
S'Buffalo TeraStation NAS device'
p899
asS'Inventel | embedded || WAP'
p900
(lp901
S'Inventel Livebox wireless broadband router or USRobotics SureConnect 9105 ADSL modem'
p902
asS'Aceex | embedded || broadband router'
p903
(lp904
S'Aceex BR41 broadband router'
p905
asS'Packard Bell | embedded || storage-misc'
p906
(lp907
S'Packard Bell NetStore 3500'
p908
asS'F5 Networks | embedded || load balancer'
p909
(lp910
S'F5 BIG-IP load balancer'
p911
asS'VMWare | ESX Server | 3.0.X | specialized'
p912
(lp913
S'VMWare ESX Server 3.0.1'
p914
aS'VMWare ESX Server 3.0.2'
p915
asS'Neuf | embedded || broadband router'
p916
(lp917
S'Dick Smith Electronics XH1169 or Neuf Box Trio3C broadband router'
p918
aS'Neuf Box Trio3D DSL modem/router/VoIP/TV'
p919
asS'MikroTik | RouterOS | 3.X | software router'
p920
(lp921
S'MikroTik RouterOS software router 3.0beta5'
p922
asS'Epson | embedded || printer'
p923
(lp924
S'Epson AcuLaser C1100 or CX11NF printer'
p925
asS'Nokia | Symbian OS | 10.X | phone'
p926
(lp927
S'Nokia E90 Communicator or N95 mobile phone (Symbian OS 9.2 - 10.0)'
p928
asS'Grandstream | embedded || VoIP phone'
p929
(lp930
S'Grandstream | embedded || VoIP phone'
p931
asS'Cisco | CatOS || switch'
p932
(lp933
S'Cisco Catalyst WS-C2950G switch'
p934
asS'Billion | embedded || broadband router'
p935
(lp936
S'Billion 7402VGP DSL router'
p937
aS'Billion 7404VGO-M DSL router'
p938
asS'NetApp | embedded || web proxy'
p939
(lp940
S'NetApp NetCache web proxy'
p941
asS'Juniper | JUNOS | 8.X | router'
p942
(lp943
S'Juniper J4350 router (JUNOS 8.3R1.5)'
p944
aS'Juniper Networks M series router (JUNOS 8.3R2.8)'
p945
asS'Canon | embedded || printer'
p946
(lp947
g245
aS'Canon 4000r printer'
p948
aS'Canon imageRUNNER 2270, 4570, or 6570 laser printer'
p949
aS'Canon imageRUNNER C3100 multifunction printer'
p950
aS'Canon imageRUNNER C3200 multifunction printer'
p951
aS'Canon imageRUNNER C6800 multifunction printer'
p952
asS'Microsoft | Windows | NT | general purpose'
p953
(lp954
S'Microsoft Windows NT 4.0 SP5'
p955
aS'Microsoft Windows NT 4.0 SP5 - SP6'
p956
aS'Microsoft Windows NT 4.0 SP6'
p957
aS'Microsoft Windows NT 4.0 Terminal Server Edition SP6'
p958
asS'Cisco | IOS | 12.X | broadband router'
p959
(lp960
S'Cisco uBR 925 cable modem (runs IOS 12.2)'
p961
asS'Cisco | embedded || encryption accelerator'
p962
(lp963
S'Cisco VPN 3000 Concentrator VPN platform'
p964
aS'Cisco VPN 3030 Concentrator VPN platform'
p965
asS'Cisco | IOS | 12.X | switch'
p966
(lp967
g516
aS'Cisco 2924M-XL switch (IOS 12.0)'
p968
aS'Cisco 2924XL switch (IOS 12.0)'
p969
aS'Cisco 2950, 3560, or 3750 switch (IOS 12.1 - 12.2)'
p970
aS'Cisco 2960G switch (IOS 12.2)'
p971
aS'Cisco 3548XL switch (IOS 12.0)'
p972
aS'Cisco 3750 or 6509 switch (IOS 12.2)'
p973
aS'Cisco C3500XL switch (IOS 12.0(5))'
p974
aS'Cisco C3550 switch (IOS 12.1)'
p975
aS'Cisco Catalyst 2950-series switch'
p976
aS'Cisco Catalyst 2960 switch'
p977
aS'Cisco Catalyst 3550 switch (IOS 12.1)'
p978
aS'Cisco Catalyst 3550-series switch (IOS 12.2)'
p979
aS'Cisco Catalyst 3750 switch (IOS 12.2)'
p980
aS'Cisco Catalyst 4000 switch (IOS 12.2)'
p981
aS'Cisco Catalyst 6500 switch (IOS 12.2)'
p982
aS'Cisco Catalyst 6500-series switch (IOS 12.1)'
p983
aS'Cisco Catalyst 8510MSR switch (IOS 12.0)'
p984
aS'Cisco Catalyst C2900- or C3500XL-series switch (IOS 12.0)'
p985
ag527
aS'Cisco Catalyst C2950 or 3750G switch (IOS 12.1 - 12.2)'
p986
asS'D-Link | embedded || router'
p987
(lp988
S'D-Link DPR-1260 print server, or DGL-4300 or DIR-655 router'
p989
asS'LaCie | Windows | XP | storage-misc'
p990
(lp991
S'LaCie NAS device (runs Windows XP Embedded)'
p992
asS'Hotway | embedded || storage-misc'
p993
(lp994
S'Hotway HDC-U2LA NAS device'
p995
asS'Iomega | Linux | 2.6.X | storage-misc'
p996
(lp997
g784
asS'FreeBSD | FreeBSD | 5.x | general purpose'
p998
(lp999
S'FreeBSD 5.1'
p1000
aS'FreeBSD 5.5-STABLE'
p1001
asS'Dick Smith Electronics | embedded || broadband router'
p1002
(lp1003
g918
asS'Inter-tel | embedded || VoIP phone'
p1004
(lp1005
g153
asS'Bosch | embedded || security system'
p1006
(lp1007
S'Bosch Divar security system'
p1008
asS'Siemens | embedded || WAP'
p1009
(lp1010
S'Siemens Gigaset SE551 wireless broadband router'
p1011
aS'Siemens Gigaset SE567 wireless broadband router'
p1012
asS'Cisco | ACNS | 5.X | web proxy'
p1013
(lp1014
S'Cisco Content Engine CE590 running Application and Content Networking System Software 5.5.5'
p1015
aS'Cisco WAE-512 Wide Area Application Engine (ACNS 5.5.5.4)'
p1016
asS'Linux | Linux | 2.4.X | VoIP gateway'
p1017
(lp1018
g608
asS'Mitel | embedded || VoIP phone'
p1019
(lp1020
S'Mitel 5212 SIP Phone'
p1021
asS'Linux | Linux | 2.4.X | media device'
p1022
(lp1023
g608
asS'HP | embedded || storage-misc'
p1024
(lp1025
S'IBM BladeCenter management module (firmware BRET85L) or HP StorageWorks MSL2024 tape library'
p1026
asS'IBM | AIX | 5.X | general purpose'
p1027
(lp1028
S'IBM AIX 5.1'
p1029
aS'IBM AIX 5.1 or 5.2'
p1030
aS'IBM AIX 5.2'
p1031
aS'IBM AIX 5.2 ML 1'
p1032
aS'IBM AIX 5.2 on Power5'
p1033
aS'IBM AIX 5.2.0.0 Maintenance Level 2'
p1034
aS'IBM AIX 5.3'
p1035
aS'IBM AIX 5.3 ML 4'
p1036
aS'IBM AIX 5.3 ML05 on Power5'
p1037
asS'ShoreTel | embedded || VoIP gateway'
p1038
(lp1039
S'ShoreTel ShoreGear-T1 VoIP switch'
p1040
asS'Lantronix | embedded || specialized'
p1041
(lp1042
S'Lantronix MSSLite device server'
p1043
aS'Lantronix UDS200 external serial device server'
p1044
aS'Lantronix XPort-03 embedded serial device server (firmware 1.80)'
p1045
aS'Lantronix Xport-03 embedded serial device server (firmware 6.1.0.3)'
p1046
asS'Novell | NetWare | 5.X | general purpose'
p1047
(lp1048
S'Novell NetWare 5.1'
p1049
asS'USRobotics | embedded || broadband router'
p1050
(lp1051
g902
aS'USRobotics USR8000 broadband router'
p1052
asS'APC | AOS | 3.X | power-device'
p1053
(lp1054
S'APC AP7900-series metered rack power distribution unit (AOS 3.x)'
p1055
aS'APC UPS Network Management Card (AOS 3.3.4)'
p1056
asS'Blue Coat | SGOS | 4.X | web proxy'
p1057
(lp1058
S'Blue Coat proxy server (SGOS 4.1 - 4.2)'
p1059
aS'Blue Coat SG200 proxy server (SGOS 4.2.2.8 - 4.2.5.1)'
p1060
aS'Blue Coat SG810 proxy server (SGOS 4.2.3.26)'
p1061
asS'ThingMagic | Linux | 2.4.X | general purpose'
p1062
(lp1063
S'ThingMagic Mercury RFID reader running Yagi OS 2.4 (Linux 2.4.27-uc1)'
p1064
asS'Toshiba | embedded || printer'
p1065
(lp1066
S'Toshiba e-STUDIO 3510c multifunction printer'
p1067
aS'Toshiba e-STUDIO 4511 multifunction printer'
p1068
aS'Toshiba e-Studio20 printer'
p1069
asS'Sensatronics | embedded || specialized'
p1070
(lp1071
S'Sensatronics E4 temperature monitor'
p1072
asS'IBM | AIX | 4.X | general purpose'
p1073
(lp1074
S'AIX 4.3.2 on RS/6000'
p1075
aS'IBM AIX 4.2'
p1076
aS'IBM AIX 4.3'
p1077
asS'Dell | embedded || printer'
p1078
(lp1079
S'3Com OfficeConnect 56K LAN modem or Dell 1600n laser printer'
p1080
aS'Dell 1815dn printer'
p1081
aS'Dell 3000 printer'
p1082
aS'Dell 3100cn or 3110cn laser printer'
p1083
asS'Sinus | embedded || WAP'
p1084
(lp1085
S'Wireless broadband router (3Com OfficeConnect, Philips SNB6500, Sinus 154, SMC SMCWEBT-G, or SMC SMCWBR14-G2)'
p1086
asS'SCO | UnixWare | 8.X | general purpose'
p1087
(lp1088
S'SCO UnixWare 8.0.0'
p1089
asS'Efficient Networks | embedded || broadband router'
p1090
(lp1091
S'Efficient Networks 5930 ADSL router'
p1092
asS'Linksys | embedded || switch'
p1093
(lp1094
S'Linksys SRW2008 or SRW2008P switch'
p1095
aS'Linksys SRW2024 or SRW2048 switch'
p1096
aS'Linksys SRW224G4 switch'
p1097
asS'Sharp | embedded || printer'
p1098
(lp1099
S'Sharp AR-M236 network printer'
p1100
aS'Sharp AR-M351N Printer'
p1101
asS'D-Link | embedded || print server'
p1102
(lp1103
g989
asS'KCorp | embedded || WAP'
p1104
(lp1105
S'KCorp KLG-575 WAP'
p1106
asS'Netgear | embedded || VoIP phone'
p1107
(lp1108
g219
asS'BSDI | BSD/OS | 4.X | general purpose'
p1109
(lp1110
S'BSDI BSD/OS 4.2'
p1111
asS'Cisco | IOS | 12.2 | switch'
p1112
(lp1113
S'Cisco 3750 switch (IOS 12.2)'
p1114
asS'IBM | embedded || printer'
p1115
(lp1116
S'IBM 6400 Printer (software version 7.0.9.6)'
p1117
aS'IBM InfoPrint 1140 printer'
p1118
asS'Foundry | embedded || switch'
p1119
(lp1120
S'Foundry Networks FastIron II Plus switch'
p1121
asS'FreeBSD | FreeBSD | 5.X | general purpose'
p1122
(lp1123
S'FreeBSD 5.2.1-RELEASE'
p1124
aS'FreeBSD 5.4 or 5.5 (x86)'
p1125
aS'FreeBSD 5.4-RELEASE'
p1126
asS'Nokia | IPSO || firewall'
p1127
(lp1128
S'Nokia IP650 firewall appliance (runs IPSO 4.0 and CheckPoint Firewall-1/VPN-1 software)'
p1129
aS'Nokia IPSO 4.1Build19 firewall'
p1130
asS'Red-M | embedded || security-misc'
p1131
(lp1132
S'Red-M Communications Red-Alert PRO wireless activity detector'
p1133
asS'IBM | embedded || remote management'
p1134
(lp1135
g1026
asS'WebVOIZE | embedded || VoIP phone'
p1136
(lp1137
S'WebVOIZE 120 IP phone'
p1138
asS'IPAD Owners Association | IPAD-OS || specialized'
p1139
(lp1140
S'IPAD-OS'
p1141
asS'Novell | NetWare | 4.X | general purpose'
p1142
(lp1143
S'Novell NetWare 4.11'
p1144
asS'D-Link | Linux | 2.4.X | WAP'
p1145
(lp1146
S'D-Link DSL-G624T wireless ADSL router (Linux 2.4.17)'
p1147
asS'Dell | embedded || switch'
p1148
(lp1149
S'Dell PowerConnect 5316M switch'
p1150
aS'Dell Powerconnect Switch'
p1151
asS'Compaq | embedded || WAP'
p1152
(lp1153
S'Compaq iPAQ CP-2W Connection Point WAP'
p1154
asS'Specialix | embedded || terminal server'
p1155
(lp1156
S'Specialix JetStream 8500 RS232 remote access server'
p1157
asS'DEC | OpenVMS | 7.X | general purpose'
p1158
(lp1159
S'DEC OpenVMS v7.1'
p1160
asS'Stonewater Control Systems | embedded || specialized'
p1161
(lp1162
S'Stonewater Control Systems environmental monitoring appliance'
p1163
asS'WatchGuard | embedded || WAP'
p1164
(lp1165
S'Watchguard Firebox X5w firewall/WAP'
p1166
asS'Actiontec | embedded || WAP'
p1167
(lp1168
g263
asS'SonicWALL | SonicOS || firewall'
p1169
(lp1170
S'SonicWALL SOHO3 firewall'
p1171
aS'Sonicwall TZ 170 Unlimited firewall'
p1172
asS'Sony | embedded || game console'
p1173
(lp1174
S'Sony PlayStation 3 game console'
p1175
asS'Panasonic | embedded || printer'
p1176
(lp1177
S'Panasonic DB-3500 series printer'
p1178
asS'Calix | embedded || switch'
p1179
(lp1180
S'Calix C7 switch (R5.0)'
p1181
asS'Linux | Linux | 2.4.X | broadband router'
p1182
(lp1183
S'Linksys WRT54G v2, WRT54GL, or WRT54GS v4; or Buffalo AirStation WZR-RS-G54 running OpenWrt w/Linux kernel 2.4'
p1184
ag608
asS'OpenBSD | OpenBSD | 2.X | general purpose'
p1185
(lp1186
S'OpenBSD 2.9 (x86)'
p1187
asS'ZTE | embedded || broadband router'
p1188
(lp1189
S'ZTE ZXDSL 831 ASDL modem'
p1190
asS'OpenBSD | OpenBSD | 3.X | general purpose'
p1191
(lp1192
S'OpenBSD 3.2 (x86)'
p1193
aS'OpenBSD 3.4 (x86)'
p1194
aS'OpenBSD 3.6 (x86)'
p1195
aS'OpenBSD 3.9'
p1196
ag684
asS'HP | embedded || remote management'
p1197
(lp1198
S'HP DL320 server iLO2 remote management interface'
p1199
asS'SMC | embedded || WAP'
p1200
(lp1201
g1086
aS'SMC SMC2804WBRP-G wireless broadband router'
p1202
aS'SMC7904WBRB2 wireless broadband router'
p1203
asS'ZyXEL | ZyNOS || firewall'
p1204
(lp1205
S'ZyXEL ZyWALL 2 or Prestige 660HW-61 ADSL router'
p1206
aS'ZyXEL ZyWALL 2 Plus firewall'
p1207
asS'Netcomm | embedded || VoIP gateway'
p1208
(lp1209
S'Netcomm V300 VoIP gateway'
p1210
asS'GNU | Hurd || general purpose'
p1211
(lp1212
S'GNU Hurd 0.3'
p1213
asS'ZyXEL | ZyNOS | 3.X | broadband router'
p1214
(lp1215
g580
asS'Silicondust | embedded || media device'
p1216
(lp1217
S'Silicondust HDHomeRun set top box'
p1218
asS'Philips | embedded || WAP'
p1219
(lp1220
g1086
asS'Amiga | AmigaOS | 3.X | general purpose'
p1221
(lp1222
S'AmigaOS 3.9 BB2'
p1223
asS'IBM | OS/400 | V4 | general purpose'
p1224
(lp1225
S'IBM OS/400 V4R3'
p1226
aS'IBM OS/400 V4R5'
p1227
asS'BeaconMedaes | embedded || specialized'
p1228
(lp1229
S'BeaconMedaes TotalAlert medical gas alarm'
p1230
asS'FreeBSD | FreeBSD | 7.X | general purpose'
p1231
(lp1232
S'FreeBSD 7.0'
p1233
aS'FreeBSD 7.0-BETA2 (custom compiled)'
p1234
aS'FreeBSD 7.0-CURRENT'
p1235
aS'FreeBSD 7.0-CURRENT (pre-release)'
p1236
asS'D-Link | embedded || WAP'
p1237
(lp1238
S'D-Link WAP (DI-524, DI-604, or DI-624), or Airnet AWR014G WAP'
p1239
aS'D-Link DI-824VUP Wireless VPN Router'
p1240
ag55
aS'D-Link DWL-900AP+ WAP'
p1241
aS'D-Link WBR-2310 wireless broadband router'
p1242
asS'Check Point | Linux | 2.4.X | firewall'
p1243
(lp1244
S'Check Point VPN-1 UTM appliance'
p1245
asS'ZyXEL | ZyNOS || broadband router'
p1246
(lp1247
S'ZyXEL Prestige 600-series ADSL router'
p1248
aS'ZyXEL Prestige 623ME-T1 ADSL dual link router'
p1249
aS'ZyXEL Prestige 660HW-61 ADSL router'
p1250
aS'ZyXEL Prestige 660HW-D1 wireless ADSL router'
p1251
asS'Kyocera | embedded || printer'
p1252
(lp1253
S'Kyocera FS-3800 network printer'
p1254
asS'IBM | OS/390 | V2 | general purpose'
p1255
(lp1256
S'IBM OS/390 V2'
p1257
asS'Cisco | embedded || switch'
p1258
(lp1259
S'Cisco Catalyst 1900 switch'
p1260
ag385
aS'Cisco Catalyst 1900 Switch, Software v9.00.03'
p1261
aS'Cisco Catalyst 1912 switch'
p1262
aS'Cisco MDS 9216i switch'
p1263
asS'Foundry | IronWare | 2.X | switch'
p1264
(lp1265
S'Foundry BigIron RX switch (IronWare 2.2.1)'
p1266
aS'Foundry BigIron RX switch, IronWare version 2.2.1lT157'
p1267
ag241
asS'Apple | embedded || phone'
p1268
(lp1269
S'Apple iPhone mobile phone or iPod Touch audio player (Darwin 9.0.0d1)'
p1270
asS'Linksys | embedded || VoIP phone'
p1271
(lp1272
g868
aS'Linksys SPA901 SIP VoIP phone'
p1273
asS'Microsoft | Windows | 2003 | general purpose'
p1274
(lp1275
S'Microsoft Windows 2003 Small Business Server'
p1276
aS'Microsoft Windows 2003 Small Business Server SP1'
p1277
aS'Microsoft Windows Server 2003'
p1278
aS'Microsoft Windows Server 2003 R2 SP1'
p1279
aS'Microsoft Windows Server 2003 SP0 or Windows XP SP2'
p1280
aS'Microsoft Windows Server 2003 SP1'
p1281
aS'Microsoft Windows Server 2003 SP1 or SP2'
p1282
aS'Microsoft Windows Server 2003 SP2'
p1283
aS'Microsoft Windows XP Professional SP2 or Windows Server 2003'
p1284
aS'Microsoft Windows XP SP2 or Windows 2003 Small Business Server'
p1285
aS'Microsoft Windows XP SP2 or Windows Server 2003 SP0/SP1'
p1286
asS'MPI Tech | embedded || print server'
p1287
(lp1288
S'MPI Tech LinkCom Xpress print server'
p1289
asS'Symantec | embedded || firewall'
p1290
(lp1291
S'Symantec Security Gateway 5620 firewall'
p1292
aS'Symantec VelociRaptor 1.5 firewall'
p1293
asS'Lantronix | embedded || print server'
p1294
(lp1295
S'Lantronix ETS4P print server'
p1296
asS'Airnet | embedded || WAP'
p1297
(lp1298
g1239
asS'Adaptec | embedded || storage-misc'
p1299
(lp1300
g219
asS'NeXT | NEXTSTEP || general purpose'
p1301
(lp1302
g325
asS'QNX | QNX | 4.X | general purpose'
p1303
(lp1304
S'QNX 4.24'
p1305
asS'Allied Telesyn | embedded || router'
p1306
(lp1307
S'Allied Telesyn AT-AR300L CentreCOM router'
p1308
aS'Allied Telesyn AT-AR410 router'
p1309
asS'Packeteer | pSOS || load balancer'
p1310
(lp1311
S'Packeteer Packetshaper 6500/ISP'
p1312
asS'Microsoft | Windows | 2000 | general purpose'
p1313
(lp1314
S'Microsoft Windows 200 SP4'
p1315
aS'Microsoft Windows 2000 AS SP4'
p1316
aS'Microsoft Windows 2000 Pro SP4'
p1317
aS'Microsoft Windows 2000 Professional (no service pack)'
p1318
aS'Microsoft Windows 2000 Server SP3 or SP4'
p1319
aS'Microsoft Windows 2000 Server SP4'
p1320
aS'Microsoft Windows 2000 SP0/SP1/SP2 or Windows XP SP1'
p1321
aS'Microsoft Windows 2000 SP0/SP2/SP4 or Windows XP SP0/SP1'
p1322
aS'Microsoft Windows 2000 SP3/SP4 or Windows XP SP1/SP2'
p1323
aS'Microsoft Windows 2000 SP4'
p1324
aS'Microsoft Windows 2000 SP4 or Windows XP Professional SP1'
p1325
aS'Microsoft Windows 2000 SP4 or Windows XP SP2'
p1326
asS'FON | Linux | 2.6.X | WAP'
p1327
(lp1328
S'DD-WRT v24 rc4 (Linux 2.6.22.6)'
p1329
aS'FON La Fonera WAP running OpenWrt Kamikaze w/Linux kernel 2.6.19.2'
p1330
asS'Teltronics | embedded || IDS'
p1331
(lp1332
S'Teltronics NET-PATH intrusion detection system'
p1333
asS'Sun | SunOS || general purpose'
p1334
(lp1335
S'Sun Solaris 8 (SPARC)'
p1336
aS'Sun SunOS 4.1.3 (SPARC)'
p1337
asS'Cisco | embedded || VoIP phone'
p1338
(lp1339
S'Cisco 7910 IP Phone'
p1340
aS'Cisco 7912-series IP phone'
p1341
aS'Cisco 7912G IP phone'
p1342
aS'Cisco 7960 Unified IP phone'
p1343
aS'Cisco IP phone (7911, 7941, 7961, or 7970)'
p1344
aS'Cisco Wireless IP Phone 7920-ETSI'
p1345
asS'DragonFly BSD | DragonFly BSD | 1.8.X | general purpose'
p1346
(lp1347
S'DragonFly BSD 1.8.0-RELEASE (x86)'
p1348
asS'Sagem Communication | embedded || broadband router'
p1349
(lp1350
S'Sagem F@st 3302 DSL router'
p1351
aS'Sagem F@st 334 DSL router'
p1352
asS'Alvarion | embedded || WAP'
p1353
(lp1354
S'Alvarion BreezeACCESS II broadband wireless access system 4.5.17'
p1355
asS'Aladdin | Linux | 2.4.X | security-misc'
p1356
(lp1357
S'Aladdin eSafe security gateway (runs Linux 2.4.21)'
p1358
asS'D-Link | embedded || broadband router'
p1359
(lp1360
g263
ag551
aS'D-Link DI-704P broadband router'
p1361
aS'D-Link DSL-500G ADSL router'
p1362
asS'Wyse | embedded || terminal'
p1363
(lp1364
S'Wyse V10L thin client'
p1365
asS'XAVi | embedded || broadband router'
p1366
(lp1367
S'Xavi 7001 DSL modem'
p1368
aS'XAVi Technologies X7721r+ DSL router'
p1369
asS'Apple | A/UX | 3.X | general purpose'
p1370
(lp1371
S'Apple A/UX 3.1.1 SVR2'
p1372
asS'Microsoft | Windows | Vista | general purpose'
p1373
(lp1374
S'Microsoft Windows Vista'
p1375
aS'Microsoft Windows Vista Business'
p1376
aS'Microsoft Windows Vista Business [Winver: Version 6.0 (Build 6000)]'
p1377
aS'Microsoft Windows Vista Home Basic'
p1378
asS'Dell | embedded || remote management'
p1379
(lp1380
S'Dell Embedded Remote Access (ERA) Controller'
p1381
aS'Dell PowerEdge 2650 server Embedded Remote Access (ERA)'
p1382
asS'3Com | embedded || WAP'
p1383
(lp1384
S'3Com OfficeConnect wireless broadband router (model 3CRWE554G72T)'
p1385
ag1086
asS'World Wide Packets | embedded || switch'
p1386
(lp1387
S'World Wide Packets LE-311, LE-327, or LE-427 LightningEdge switch'
p1388
asS'Dell | embedded || storage-misc'
p1389
(lp1390
S'Dell PowerVault 124T LTO-3 tape autoloader'
p1391
aS'Dell PowerVault 132T tape library'
p1392
asS'Sitecom | embedded || WAP'
p1393
(lp1394
S'Sitecom WL-174 wireless ADSL router'
p1395
asS'Nokia | Symbian OS | 9.X | phone'
p1396
(lp1397
g928
asS'Ember | embedded || specialized'
p1398
(lp1399
S'Ember InSight Adapter for programming EM2XX-family embedded devices'
p1400
asS'Toshiba | Linux | 2.4.X | server appliance'
p1401
(lp1402
S'Toshiba Magnia SG10 server appliance'
p1403
asS'SonicWALL | SonicOS | 3.X | firewall'
p1404
(lp1405
S'SonicWALL TZ 170 firewall'
p1406
asS'ZyXEL | ZyNOS | 3.X | firewall'
p1407
(lp1408
S'ZyXEL ZyWALL 10W firewall'
p1409
asS'Siemens | embedded || VoIP phone'
p1410
(lp1411
S'Siemens HiPath optiPoint 400 VoIP phone'
p1412
asS'Netgear | embedded || storage-misc'
p1413
(lp1414
g153
asS'FreeBSD | FreeBSD | 6.X | general purpose'
p1415
(lp1416
S'FreeBSD 6.0-RELEASE - 6.2-RELEASE'
p1417
aS'FreeBSD 6.0-SECURITY (x86)'
p1418
aS'FreeBSD 6.0-STABLE - 6.2-RELEASE'
p1419
aS'FreeBSD 6.1-RELEASE'
p1420
aS'FreeBSD 6.1-RELEASE - 6.2'
p1421
aS'FreeBSD 6.1-RELEASE - 6.2-RELEASE'
p1422
aS'FreeBSD 6.1-RELEASE-p10 (x86-64)'
p1423
aS'FreeBSD 6.1-RELEASE-p5 (x86)'
p1424
aS'FreeBSD 6.2-RC1'
p1425
aS'FreeBSD 6.2-RELEASE'
p1426
aS'FreeBSD 6.2-RELEASE (x86)'
p1427
aS'FreeBSD 6.2-RELEASE-p1 (x86)'
p1428
aS'FreeBSD 6.2-RELEASE-p2 (pf with scrub enabled)'
p1429
aS'FreeBSD 6.2-RELEASE-p3'
p1430
aS'FreeBSD 6.2-STABLE - 6.3-PRERELEASE'
p1431
aS'FreeBSD 6.3-PRERELEASE'
p1432
aS'FreeNAS 0.671 (runs FreeBSD 6.1-STABLE)'
p1433
asS'SonicWALL | SonicOS | 2.X | firewall'
p1434
(lp1435
S'SonicWALL TZ 170 Standard firewall'
p1436
asS'Apple | Mac OS X | 10.3.X | general purpose'
p1437
(lp1438
S'Apple Mac OS X 10.3.9 (Panther) - 10.4.5 (Tiger) (Darwin 7.9.0 - 8.5.0, PowerPC)'
p1439
ag360
aS'Apple Mac OS X Server 10.3.9 (Panther)'
p1440
aS'Mac OS X 10.3.9 (Panther) (Darwin 7.9.0, PowerPC)'
p1441
asS'NetApp | Data ONTAP | 7.X | storage-misc'
p1442
(lp1443
S'NetApp FAS3020 or FAS 3040 NAS device (Data ONTAP 7.0.X - 7.2.X)'
p1444
asS'Blue Coat | SGOS | 5.X | web proxy'
p1445
(lp1446
S'Blue Coat SG200 proxy server (SGOS 5.1.4.4)'
p1447
aS'Blue Coat SG510-series proxy server (SGOS 5.1.3.7)'
p1448
asS'MicroNet | embedded || WAP'
p1449
(lp1450
S'MicroNet SP2267 wireless ADSL router'
p1451
asS'Linux | Linux || general purpose'
p1452
(lp1453
S'Linux 2.6.18 (CentOS 5, x86_64, SMP)'
p1454
aS'Linux 2.6.21'
p1455
asS'Swisscom | embedded || media device'
p1456
(lp1457
S'Swisscom BlueWin TV set top box'
p1458
asS'Rockwell Automation | embedded || specialized'
p1459
(lp1460
S'Rockwell Automation 1761-NET-ENI Ethernet-to-RS-232-C interface module'
p1461
asS'Juniper | embedded || router'
p1462
(lp1463
S'Juniper Networks ERX-700 router'
p1464
asS'Check Point | embedded || firewall'
p1465
(lp1466
S'Check Point ZoneAlarm Z100G firewall'
p1467
asS'Occam | embedded || VoIP gateway'
p1468
(lp1469
S'Occam ONT ON2342 Voice/Video over IP box'
p1470
asS'Netgear | embedded || broadband router'
p1471
(lp1472
S'Netgear DM602 ADSL router'
p1473
aS'Netgear RT311 broadband router'
p1474
aS'Netgear WGN824 v2 DSL router'
p1475
asS'W&T | embedded || specialized'
p1476
(lp1477
S'W&T Web-Thermometer model 57101'
p1478
asS'WatchGuard | embedded || firewall'
p1479
(lp1480
S'WatchGuard FireBox 700'
p1481
ag1166
asS'IPCop | Linux | 2.4.X | firewall'
p1482
(lp1483
S'IPCop firewall 1.4.10 - 1.4.15 (Linux 2.4.31 - 2.4.34)'
p1484
aS'IPCop firewall 1.4.16 (Linux 2.4.34)'
p1485
asS'IBM | z/OS | 1.8.X | general purpose'
p1486
(lp1487
S'IBM z/OS 01.08.00'
p1488
aS'IBM z/OS 1.8.0'
p1489
asS'Lexmark | embedded || printer'
p1490
(lp1491
S'Lexmark C500 printer'
p1492
aS'Lexmark C500n color laser printer'
p1493
aS'Lexmark E332n printer'
p1494
aS'Lexmark Optra M410, T610, or T622 printer'
p1495
aS'Lexmark Optra S 1855 or Se3455 Printer'
p1496
aS'Lexmark Optra T612 Printer'
p1497
aS'Lexmark T522 or E332n printer'
p1498
aS'Lexmark T632/C750 printer'
p1499
aS'Lexmark T642 printer'
p1500
aS'Lexmark X644e printer'
p1501
asS'3Com | Linux | 2.4.X | broadband router'
p1502
(lp1503
S'3Com OfficeConnect #CRWER100-75 wireless router'
p1504
asS'Sun | Solaris | 10 | general purpose'
p1505
(lp1506
S'Sun Solaris 10 (SPARC)'
p1507
aS'Sun Solaris 10 (x86)'
p1508
ag728
ag729
asS'Motorola | embedded || router'
p1509
(lp1510
S'Motorola Canopy cluster management module 2.2'
p1511
asS'Siemens | Linux || WAP'
p1512
(lp1513
S'Siemens Gigaset SE515dsl wireless broadband router'
p1514
asS'IronPort | AsyncOS || specialized'
p1515
(lp1516
S'IronPort C100 v4.7.1-009 - English'
p1517
asS'HP | embedded || scanner'
p1518
(lp1519
S'HP 9100c Digital Sender scanner'
p1520
asS'IBM | z/OS | 1.4.X | general purpose'
p1521
(lp1522
S'IBM z/OS 1.4.2'
p1523
asS'Xylan | embedded || switch'
p1524
(lp1525
S'Xylan OmniStack switch (version 3.2.5)'
p1526
aS'Xylan OmniStack switch (version 3.4.7)'
p1527
asS'Microsoft | Windows | XP | general purpose'
p1528
(lp1529
g1323
ag1325
aS'Microsoft Windows Server 2003 SP2 (x64)'
p1530
aS'Microsoft Windows XP'
p1531
aS'Microsoft Windows XP Embedded SP2'
p1532
aS'Microsoft Windows XP Home SP1'
p1533
aS'Microsoft Windows XP Home SP1 (French)'
p1534
aS'Microsoft Windows XP Home SP2'
p1535
aS'Microsoft Windows XP Home SP2 (Russian)'
p1536
aS'Microsoft Windows XP Professional'
p1537
aS'Microsoft Windows XP Professional SP1'
p1538
aS'Microsoft Windows XP Professional SP1a'
p1539
aS'Microsoft Windows XP Professional SP2'
p1540
aS'Microsoft Windows XP Professional SP2 (firewall enabled)'
p1541
aS'Microsoft Windows XP Professional SP2 (French)'
p1542
aS'Microsoft Windows XP Professional SP2 (German)'
p1543
aS'Microsoft Windows XP Professional SP2 (Russian)'
p1544
ag1284
aS'Microsoft Windows XP SP 2'
p1545
aS'Microsoft Windows XP SP0 or SP1'
p1546
aS'Microsoft Windows XP SP1'
p1547
aS'Microsoft Windows XP SP2'
p1548
aS'Microsoft Windows XP SP2 (firewall disabled)'
p1549
ag1285
ag1286
asS'Novell | NetWare | 6.X | general purpose'
p1550
(lp1551
S'Novell NetWare 6.0 or 6.5 SP5'
p1552
aS'Novell NetWare 6.5 Open Enterprise Server'
p1553
aS'Novell NetWare 6.5 Open Enterprise Server SP6'
p1554
aS'Novell NetWare 6.5 SP3 Open Enterprise Server'
p1555
asS'Netgear | embedded || firewall'
p1556
(lp1557
S'Netgear FR114P ProSafe VPN firewall'
p1558
asS'Exabyte | embedded || storage-misc'
p1559
(lp1560
S'Exabyte 221L LTO-3 tape library'
p1561
asS'Alcatel | embedded || PBX'
p1562
(lp1563
S'Alcatel 4400 PBX (Chorus MiX V.3.2 r4.1.5 COMP-386)'
p1564
asS'Apple | NetBSD | 4.X | WAP'
p1565
(lp1566
S'Apple AirPort Extreme WAP (runs NetBSD)'
p1567
asS'3Com | embedded || switch'
p1568
(lp1569
S'3Com 4200G switch'
p1570
aS'3Com Super Stack 4300 switch'
p1571
aS'3Com SuperStack 3 Switch 4500'
p1572
aS'3Com SuperStack 4200 switch'
p1573
aS'3Com SuperStack II Switch, model 3900-36'
p1574
aS'3Com SuperStack III 3300XM switch'
p1575
asS'Sun | Solaris | 7 | general purpose'
p1576
(lp1577
S'Sun Solaris 7 (SPARC)'
p1578
asS'Radware | embedded || load balancer'
p1579
(lp1580
S'Radware LinkProof load balancer'
p1581
asS'Tandberg | embedded || webcam'
p1582
(lp1583
S'Tandberg 990 MXP Video Conferencing Unit'
p1584
asS'Mobotix | Linux | 2.2.X | webcam'
p1585
(lp1586
S'Mobotix M10Mi-Secure security camera (runs Linux 2.2.9)'
p1587
asS'Fortinet | embedded || firewall'
p1588
(lp1589
g219
asS'Cisco | CatOS | 4.X | switch'
p1590
(lp1591
S'Cisco Catalyst WS-C5000 switch (CatOS 4.5(1))'
p1592
asS'Microsoft | embedded || media device'
p1593
(lp1594
S'Microsoft Windows Mobile 6 Classic or Microsoft Zune audio player (firmware 2.2)'
p1595
asS'HP | embedded || print server'
p1596
(lp1597
S'HP 170X JetDirect print server (J3258B)'
p1598
aS'HP 4200 PSA (Print Server Appliance) model J4117A'
p1599
aS'HP Jetdirect 175x Fast Ethernet Print Server (J6035G)'
p1600
aS'HP JetDirect J3110A print server'
p1601
ag633
ag92
asS'Cisco | CatOS | 6.X | switch'
p1602
(lp1603
S'Cisco Catalyst WS-C6509 switch (CatOS 6.3)'
p1604
asS'Infrant | RAIDiator || storage-misc'
p1605
(lp1606
S'Infrant ReadyNAS NV NAS Appliance'
p1607
asS'Cisco | CatOS | 7.X | switch'
p1608
(lp1609
g278
aS'Cisco Catalyst WS-C6506 switch (CatOS 7.6(16))'
p1610
asS'Linux | Linux | 2.0.X | general purpose'
p1611
(lp1612
S'Linux 2.0.33 (Red Hat 5.0)'
p1613
aS'Linux 2.0.35'
p1614
aS'Linux 2.0.39'
p1615
asS'Sun | Solaris | 8 | general purpose'
p1616
(lp1617
S'Sun Solaris 8 (SPARC)'
p1618
aS'Sun Solaris 8 (x86)'
p1619
asS'PC-BSD | PC-BSD || enterprise'
p1620
(lp1621
S'PC-BSD 1.3'
p1622
asS'Motorola | VxWorks | 5.X | broadband router'
p1623
(lp1624
S'Motorola SURFboard SB3100 cable modem (VxWorks 5.3)'
p1625
aS'Motorola SURFboard SB5100E cable modem'
p1626
asS'Terratec | embedded || media device'
p1627
(lp1628
S'Philips SLA5500 Wireless Music Adapter or WAK3300 wireless alarm clock, or Terratec NOXON audio system'
p1629
asS'Sony | embedded || webcam'
p1630
(lp1631
S'Sony PCS-TL30 video conferencing system'
p1632
asS'Apple | embedded || media device'
p1633
(lp1634
g1270
asS'IOGear | embedded || print server'
p1635
(lp1636
S'IOGear GPSU01 USB print server'
p1637
asS'Force10 | SFTOS | 2.X | switch'
p1638
(lp1639
S'Force10 Networks S-Series switch (SFTOS 2.5.1.3)'
p1640
asS'APC | embedded || specialized'
p1641
(lp1642
S'APC AP9319 Environmental Monitoring Unit'
p1643
asS'Thomson | embedded || broadband router'
p1644
(lp1645
S'Thomson SpeedTouch 510/510i/530/580 DSL modem'
p1646
asS'Infoblox | NIOS | 4.X | specialized'
p1647
(lp1648
S'Infoblox NIOS Release 4.1r2-5-22263'
p1649
asS'FreeBSD | FreeBSD | 2.X | general purpose'
p1650
(lp1651
S'FreeBSD 2.2.9 (x86)'
p1652
asS'Linux | Linux | 2.6.X | firewall'
p1653
(lp1654
S'Smoothwall firewall (Linux 2.6.16.53)'
p1655
asS'AXIS | Linux | 2.6.X | webcam'
p1656
(lp1657
S'AXIS 207 Network Camera or 241Q Video Server'
p1658
asS'NCR | embedded || ATM'
p1659
(lp1660
S'NCR 5676 or 5688 automated teller machine'
p1661
asS'Panasonic | embedded || webcam'
p1662
(lp1663
g251
asS'Microsoft | Windows | PocketPC/CE | general purpose'
p1664
(lp1665
g1595
asS'SCO | SCO UNIX | 3.X | general purpose'
p1666
(lp1667
S'SCO UNIX 3.2v5.0.7'
p1668
asS'Asus | embedded || WAP'
p1669
(lp1670
S'Asus WL-500gP wireless broadband router'
p1671
asS'Fujitsu Siemens | embedded || specialized'
p1672
(lp1673
S'Fujitsu Siemens RX100 S4 Primergy remote manager'
p1674
aS'Fujitsu Siemens TX300 SS Primergy remote manager'
p1675
asS'AudioCodes | embedded || VoIP gateway'
p1676
(lp1677
S'Audiocodes MP-118-4FXS4FXO VoIP gateway'
p1678
asS'NetBSD | NetBSD | 3.X | general purpose'
p1679
(lp1680
S'NetBSD 3.1 (AMD64)'
p1681
asS'Microsoft | Windows | 2008 | general purpose'
p1682
(lp1683
S'Microsoft Windows Server 2008 Beta 3'
p1684
asS'Alcatel | embedded || broadband router'
p1685
(lp1686
S'Alcatel SpeedTouch Pro ADSL Modem'
p1687
asS'Tektronix | embedded || printer'
p1688
(lp1689
S'Tektronix Phaser 8200DP laser printer'
p1690
asS'Apple | Mac OS | 9.X | general purpose'
p1691
(lp1692
S'Apple Mac OS 9.2'
p1693
aS'Mac OS 9.0.4'
p1694
asS'Actiontec | Linux | 2.4.X | WAP'
p1695
(lp1696
g264
asS'QLogic | embedded || switch'
p1697
(lp1698
g567
asS'DEC | Digital UNIX | 5.X | general purpose'
p1699
(lp1700
S'DEC Digital UNIX 5.X'
p1701
asS'Philips | embedded || media device'
p1702
(lp1703
g1629
asS'Sun | embedded || specialized'
p1704
(lp1705
S'Sun Remote System Control (RSC)'
p1706
asS'Avaya | embedded || switch'
p1707
(lp1708
S'Avaya P130 workgroup switch'
p1709
aS'Avaya P330 Stackable Switch'
p1710
aS'Avaya P580 switch running Cajun Switch Agent v5.4.2'
p1711
aS'Avaya P880 switch running Cajun Switch Agent v5.3.2'
p1712
asS'Wyse | Linux | 2.6.X | terminal'
p1713
(lp1714
S'Wyse S50 thin client (runs Linux 2.6)'
p1715
asS'F5 Labs | embedded || load balancer'
p1716
(lp1717
S'F5 BIG-IP Local Traffic Manager load balancer'
p1718
asS'Telkom | Linux | 2.4.X | broadband router'
p1719
(lp1720
S'Telkom Mega 100 WR DSL modem (Linux 2.4.17_mvl21-malta-mips_fp_le)'
p1721
asS'IBM | i5/OS | V5 | general purpose'
p1722
(lp1723
S'IBM i5/OS V5'
p1724
aS'IBM i5/OS V5R3M0'
p1725
aS'IBM i5/OS V5r4 on an IBM iSeries (PPC)'
p1726
asS'Sipura | embedded || VoIP adapter'
p1727
(lp1728
g868
aS'Sipura SPA-1001 or SPA-3000 VoIP adapter'
p1729
asS'ONStor | OpenBSD | 2.X | storage-misc'
p1730
(lp1731
S'ONStor Bobcat 2220 NAS Gateway (runs OpenBSD 2.8)'
p1732
asS'Fujitsu Siemens | ReliantUNIX || general purpose'
p1733
(lp1734
S'Fujitsu Siemens ReliantUNIX-N (SINIX-N) on RM400'
p1735
asS'Senao | embedded || WAP'
p1736
(lp1737
S'Senao NL-2611CB3 PLUS WAP'
p1738
as.