(dp1
S'radmin'
p2
(dp3
S'comment'
p4
S'Radmin (www.radmin.com) remote PC control software'
p5
sS'udp'
p6
I00
sS'ddp'
p7
I00
sS'ports'
p8
(lp9
I4899
asS'tcp'
p10
I01
ssS'zannet'
p11
(dp12
g4
S''
sg6
I01
sg7
I00
sg8
(lp13
I317
asg10
I01
ssS'freeciv'
p14
(dp15
g4
S''
sg6
I00
sg7
I00
sg8
(lp16
I5555
asg10
I01
ssS'dlswpn'
p17
(dp18
g4
S'Data Link Switch Write Port Number'
p19
sg6
I01
sg7
I00
sg8
(lp20
I2067
asg10
I01
ssS'proshare2'
p21
(dp22
g4
S'Proshare Notebook Application'
p23
sg6
I01
sg7
I00
sg8
(lp24
I1460
asg10
I01
ssS'proshare1'
p25
(dp26
g4
S'Proshare Notebook Application'
p27
sg6
I01
sg7
I00
sg8
(lp28
I1459
asg10
I01
ssS'elan'
p29
(dp30
g4
S'Elan License Manager'
p31
sg6
I01
sg7
I00
sg8
(lp32
I1378
asg10
I01
ssS'entomb'
p33
(dp34
g4
S''
sg6
I00
sg7
I00
sg8
(lp35
I775
asg10
I01
ssS'ansatrader'
p36
(dp37
g4
S'ANSA REX Trader'
p38
sg6
I01
sg7
I00
sg8
(lp39
I124
asg10
I01
ssS'krb524'
p40
(dp41
g4
S'Kerberos 5 to 4 ticket xlator'
p42
sg6
I01
sg7
I00
sg8
(lp43
I4444
asg10
I01
ssS'semantix'
p44
(dp45
g4
S''
sg6
I01
sg7
I00
sg8
(lp46
I361
asg10
I01
ssS'datasurfsrv'
p47
(dp48
g4
S''
sg6
I01
sg7
I00
sg8
(lp49
I461
asg10
I01
ssS'mimer'
p50
(dp51
g4
S''
sg6
I01
sg7
I00
sg8
(lp52
I1360
asg10
I01
ssS'cce4x'
p53
(dp54
g4
S'ClearCommerce Engine 4.x (www.clearcommerce.com)'
p55
sg6
I00
sg7
I00
sg8
(lp56
I12000
asg10
I01
ssS'send'
p57
(dp58
g4
S''
sg6
I01
sg7
I00
sg8
(lp59
I169
asg10
I01
ssS'isakmp'
p60
(dp61
g4
S''
sg6
I01
sg7
I00
sg8
(lp62
I500
asg10
I01
ssS'compressnet'
p63
(dp64
g4
S'Management Utility'
p65
sg6
I01
sg7
I00
sg8
(lp66
I2
aI3
asg10
I01
ssS'troff'
p67
(dp68
g4
S''
sg6
I00
sg7
I00
sg8
(lp69
I2014
asg10
I01
ssS'openmath'
p70
(dp71
g4
S''
sg6
I01
sg7
I00
sg8
(lp72
I1473
asg10
I01
ssS'lansource'
p73
(dp74
g4
S''
sg6
I01
sg7
I00
sg8
(lp75
I1485
asg10
I01
ssS'imaps'
p76
(dp77
g4
S'imap4 protocol over TLS/SSL'
p78
sg6
I00
sg7
I00
sg8
(lp79
I993
asg10
I01
ssS'dectalk'
p80
(dp81
g4
S''
sg6
I00
sg7
I00
sg8
(lp82
I2007
asg10
I01
ssS'fax'
p83
(dp84
g4
S'FlexFax FAX transmission service'
p85
sg6
I00
sg7
I00
sg8
(lp86
I4557
asg10
I01
ssS'pdap'
p87
(dp88
g4
S'Prospero Data Access Protocol'
p89
sg6
I01
sg7
I00
sg8
(lp90
I344
asg10
I01
ssS'VeritasBackupExec'
p91
(dp92
g4
S'Backup Exec UNIX and 95/98/ME Aent'
p93
sg6
I00
sg7
I00
sg8
(lp94
I6101
asg10
I01
ssS'krb_prop'
p95
(dp96
g4
S'kerberos/v5 server propagation'
p97
sg6
I00
sg7
I00
sg8
(lp98
I754
asg10
I01
ssS'mpm'
p99
(dp100
g4
S'Message Processing Module [recv]'
p101
sg6
I01
sg7
I00
sg8
(lp102
I45
asg10
I01
ssS'licensedaemon'
p103
(dp104
g4
S'cisco license management'
p105
sg6
I01
sg7
I00
sg8
(lp106
I1986
asg10
I01
ssS'mpp'
p107
(dp108
g4
S'Netix Message Posting Protocol'
p109
sg6
I01
sg7
I00
sg8
(lp110
I218
asg10
I01
ssS'tinyfw'
p111
(dp112
g4
S'tiny personal firewall admin port'
p113
sg6
I00
sg7
I00
sg8
(lp114
I44334
asg10
I01
ssS'hems'
p115
(dp116
g4
S''
sg6
I01
sg7
I00
sg8
(lp117
I151
asg10
I01
ssS'utime'
p118
(dp119
g4
S'unixtime'
p120
sg6
I01
sg7
I00
sg8
(lp121
I519
asg10
I01
ssS'dtspc'
p122
(dp123
g4
S'CDE subprocess control'
p124
sg6
I00
sg7
I00
sg8
(lp125
I6112
asg10
I01
ssS'dbreporter'
p126
(dp127
g4
S'Integrity Solutions'
p128
sg6
I01
sg7
I00
sg8
(lp129
I1379
asg10
I01
ssS'netcp'
p130
(dp131
g4
S'NETscout Control Protocol'
p132
sg6
I01
sg7
I00
sg8
(lp133
I395
aI740
asg10
I01
ssS'fhc'
p134
(dp135
g4
S'Federico Heinz Consultora'
p136
sg6
I01
sg7
I00
sg8
(lp137
I1499
asg10
I01
ssS'phonebook'
p138
(dp139
g4
S'phone'
p140
sg6
I01
sg7
I00
sg8
(lp141
I767
asg10
I01
ssS'srssend'
p142
(dp143
g4
S'SRS Send'
p144
sg6
I01
sg7
I00
sg8
(lp145
I362
asg10
I01
ssS'atex_elmd'
p146
(dp147
g4
S'Atex Publishing License Manager'
p148
sg6
I01
sg7
I00
sg8
(lp149
I1385
asg10
I01
ssS'cvspserver'
p150
(dp151
g4
S'CVS network server'
p152
sg6
I01
sg7
I00
sg8
(lp153
I2401
asg10
I01
ssS'venus'
p154
(dp155
g4
S''
sg6
I01
sg7
I00
sg8
(lp156
I2430
asg10
I01
ssS'cce3x'
p157
(dp158
g4
S'ClearCommerce Engine 3.x ( www.clearcommerce.com)'
p159
sg6
I00
sg7
I00
sg8
(lp160
I1139
asg10
I01
ssS'imap3'
p161
(dp162
g4
S'Interactive Mail Access Protocol v3'
p163
sg6
I01
sg7
I00
sg8
(lp164
I220
asg10
I01
ssS'dis'
p165
(dp166
g4
S'Data Interpretation System'
p167
sg6
I01
sg7
I00
sg8
(lp168
I393
asg10
I01
ssS'rrh'
p169
(dp170
g4
S''
sg6
I01
sg7
I00
sg8
(lp171
I753
asg10
I01
ssS'sns_credit'
p172
(dp173
g4
S'Shared Network Services (SNS) for Canadian credit card authorizations'
p174
sg6
I00
sg7
I00
sg8
(lp175
I1076
asg10
I01
ssS'tnETOS'
p176
(dp177
g4
S'NEC Corporation'
p178
sg6
I01
sg7
I00
sg8
(lp179
I377
asg10
I01
ssS'syslog'
p180
(dp181
g4
S'BSD syslogd(8)'
p182
sg6
I01
sg7
I00
sg8
(lp183
I514
asg10
I00
ssS'scrabble'
p184
(dp185
g4
S''
sg6
I01
sg7
I00
sg8
(lp186
I2026
asg10
I01
ssS'ntalk'
p187
(dp188
g4
S'(talkd)'
p189
sg6
I01
sg7
I00
sg8
(lp190
I518
asg10
I01
ssS'crystalenterprise'
p191
(dp192
g4
S'Seagate Crystal Enterprise'
p193
sg6
I00
sg7
I00
sg8
(lp194
I6401
asg10
I01
ssS'cfs'
p195
(dp196
g4
S'cryptographic file system (nfs) (proposed)'
p197
sg6
I01
sg7
I00
sg8
(lp198
I3049
asg10
I01
ssS'zserv'
p199
(dp200
g4
S'Zebra server'
p201
sg6
I01
sg7
I00
sg8
(lp202
I346
asg10
I01
ssS'amandaidx'
p203
(dp204
g4
S'Amanda indexing'
p205
sg6
I00
sg7
I00
sg8
(lp206
I10082
asg10
I01
ssS'sdxauthd'
p207
(dp208
g4
S'ACE/Server services'
p209
sg6
I01
sg7
I00
sg8
(lp210
I5540
asg10
I00
ssS'is99c'
p211
(dp212
g4
S'TIA/EIA/IS-99 modem client'
p213
sg6
I01
sg7
I00
sg8
(lp214
I379
asg10
I01
ssS'sj3'
p215
(dp216
g4
S'SJ3 (kanji input)'
p217
sg6
I00
sg7
I00
sg8
(lp218
I3086
asg10
I01
ssS'pipes'
p219
(dp220
g4
S'Pipes Platform'
p221
sg6
I01
sg7
I00
sg8
(lp222
I1465
asg10
I01
ssS'DragonIDSConsole'
p223
(dp224
g4
S'Dragon IDS Console '
p225
sg6
I00
sg7
I00
sg8
(lp226
I9111
asg10
I01
ssS'prsvp'
p227
(dp228
g4
S'RSVP Port'
p229
sg6
I01
sg7
I00
sg8
(lp230
I3455
asg10
I01
ssS'netnews'
p231
(dp232
g4
S'readnews'
p233
sg6
I01
sg7
I00
sg8
(lp234
I532
asg10
I01
ssS'ndsauth'
p235
(dp236
g4
S''
sg6
I01
sg7
I00
sg8
(lp237
I353
asg10
I01
ssS'ipcserver'
p238
(dp239
g4
S'Sun IPC server'
p240
sg6
I01
sg7
I00
sg8
(lp241
I600
asg10
I01
ssS'bdp'
p242
(dp243
g4
S'Bundle Discovery Protocol'
p244
sg6
I01
sg7
I00
sg8
(lp245
I581
asg10
I01
ssS'xnmp'
p246
(dp247
g4
S''
sg6
I01
sg7
I00
sg8
(lp248
I1652
asg10
I01
ssS'is99s'
p249
(dp250
g4
S'TIA/EIA/IS-99 modem server'
p251
sg6
I01
sg7
I00
sg8
(lp252
I380
asg10
I01
ssS'mondex'
p253
(dp254
g4
S''
sg6
I01
sg7
I00
sg8
(lp255
I471
asg10
I01
ssS'kerberos_master'
p256
(dp257
g4
S"Kerberos `kadmin' (v4)"
p258
sg6
I01
sg7
I00
sg8
(lp259
I751
asg10
I01
ssS'admd'
p260
(dp261
g4
S'(chili!soft asp admin port) or Yahoo pager'
p262
sg6
I00
sg7
I00
sg8
(lp263
I5100
asg10
I01
ssS'ginad'
p264
(dp265
g4
S''
sg6
I01
sg7
I00
sg8
(lp266
I634
asg10
I01
ssS'docstor'
p267
(dp268
g4
S''
sg6
I01
sg7
I00
sg8
(lp269
I1488
asg10
I01
ssS'quake3'
p270
(dp271
g4
S'Quake 3 Arena Server'
p272
sg6
I01
sg7
I00
sg8
(lp273
I27960
asg10
I00
ssS'quake2'
p274
(dp275
g4
S'Quake 2 game server'
p276
sg6
I01
sg7
I00
sg8
(lp277
I27910
asg10
I00
ssS'saprouter'
p278
(dp279
g4
S'SAProuter'
p280
sg6
I00
sg7
I00
sg8
(lp281
I3299
asg10
I01
ssS'shadowserver'
p282
(dp283
g4
S''
sg6
I01
sg7
I00
sg8
(lp284
I2027
asg10
I01
ssS'uarps'
p285
(dp286
g4
S'Unisys ARPs'
p287
sg6
I01
sg7
I00
sg8
(lp288
I219
asg10
I01
ssS'stmf'
p289
(dp290
g4
S''
sg6
I01
sg7
I00
sg8
(lp291
I501
asg10
I01
ssS'tacnews'
p292
(dp293
g4
S'TAC News'
p294
sg6
I01
sg7
I00
sg8
(lp295
I98
asg10
I00
ssS'utmpcd'
p296
(dp297
g4
S''
sg6
I01
sg7
I00
sg8
(lp298
I431
asg10
I01
ssS'acmaint_dbd'
p299
(dp300
g4
S''
sg6
I01
sg7
I00
sg8
(lp301
I774
asg10
I00
ssS'search'
p302
(dp303
g4
S'Or nfr411'
p304
sg6
I00
sg7
I00
sg8
(lp305
I2010
asg10
I01
ssS'omad'
p306
(dp307
g4
S'OpenMosix Autodiscovery Daemon'
p308
sg6
I01
sg7
I00
sg8
(lp309
I32768
asg10
I00
ssS'rds'
p310
(dp311
g4
S''
sg6
I01
sg7
I00
sg8
(lp312
I1540
asg10
I01
ssS'udt_os'
p313
(dp314
g4
S'Unidata UDT OS'
p315
sg6
I01
sg7
I00
sg8
(lp316
I3900
asg10
I01
ssS'checksum'
p317
(dp318
g4
S'CheckSum License Manager'
p319
sg6
I01
sg7
I00
sg8
(lp320
I1386
asg10
I01
ssS'netviewdm1'
p321
(dp322
g4
S'IBM NetView DM/6000 Server/Client'
p323
sg6
I01
sg7
I00
sg8
(lp324
I729
asg10
I01
ssS'cronus'
p325
(dp326
g4
S'CRONUS-SUPPORT'
p327
sg6
I01
sg7
I00
sg8
(lp328
I148
asg10
I01
ssS'submitserver'
p329
(dp330
g4
S''
sg6
I01
sg7
I00
sg8
(lp331
I2028
asg10
I01
ssS'ariel1'
p332
(dp333
g4
S''
sg6
I01
sg7
I00
sg8
(lp334
I419
asg10
I01
ssS'timbuktu'
p335
(dp336
g4
S''
sg6
I01
sg7
I00
sg8
(lp337
I407
asg10
I01
ssS'ctf'
p338
(dp339
g4
S'Common Trace Facility'
p340
sg6
I01
sg7
I00
sg8
(lp341
I84
asg10
I01
ssS'ariel2'
p342
(dp343
g4
S''
sg6
I01
sg7
I00
sg8
(lp344
I421
asg10
I01
ssS'garcon'
p345
(dp346
g4
S''
sg6
I00
sg7
I00
sg8
(lp347
I999
asg10
I01
ssS'dsp3270'
p348
(dp349
g4
S'Display Systems Protocol'
p350
sg6
I01
sg7
I00
sg8
(lp351
I246
asg10
I01
ssS'dhcps'
p352
(dp353
g4
S'DHCP/Bootstrap Protocol Server'
p354
sg6
I01
sg7
I00
sg8
(lp355
I67
asg10
I01
ssS'nlogin'
p356
(dp357
g4
S''
sg6
I01
sg7
I00
sg8
(lp358
I758
asg10
I01
ssS'vid'
p359
(dp360
g4
S''
sg6
I01
sg7
I00
sg8
(lp361
I769
asg10
I01
ssS'objectmanager'
p362
(dp363
g4
S''
sg6
I01
sg7
I00
sg8
(lp364
I2038
asg10
I01
ssS'chshell'
p365
(dp366
g4
S'chcmd'
p367
sg6
I01
sg7
I00
sg8
(lp368
I562
asg10
I01
ssS'sapeps'
p369
(dp370
g4
S'SAP EPS'
p371
sg6
I00
sg7
I00
sg8
(lp372
I3399
asg10
I01
ssS'dhcpc'
p373
(dp374
g4
S'DHCP/Bootstrap Protocol Client'
p375
sg6
I01
sg7
I00
sg8
(lp376
I68
asg10
I01
ssS'ipp'
p377
(dp378
g4
S'Internet Printing Protocol -- for one implementation see http://www.cups.org (Common UNIX Printing System)'
p379
sg6
I00
sg7
I00
sg8
(lp380
I631
asg10
I01
ssS'wpages'
p381
(dp382
g4
S''
sg6
I01
sg7
I00
sg8
(lp383
I776
asg10
I01
ssS'snagas'
p384
(dp385
g4
S'SNA Gateway Access Server'
p386
sg6
I01
sg7
I00
sg8
(lp387
I108
asg10
I01
ssS'telelpathattack'
p388
(dp389
g4
S''
sg6
I01
sg7
I00
sg8
(lp390
I5011
asg10
I01
ssS'ipx'
p391
(dp392
g4
S''
sg6
I01
sg7
I00
sg8
(lp393
I213
asg10
I01
ssS'deos'
p394
(dp395
g4
S'Distributed External Object Store'
p396
sg6
I01
sg7
I00
sg8
(lp397
I76
asg10
I01
ssS'wdbrpc'
p398
(dp399
g4
S'vxWorks WDB remote debugging ONCRPC'
p400
sg6
I01
sg7
I00
sg8
(lp401
I17185
asg10
I00
ssS'softpc'
p402
(dp403
g4
S'Insignia Solutions'
p404
sg6
I01
sg7
I00
sg8
(lp405
I215
asg10
I01
ssS'sstats'
p406
(dp407
g4
S''
sg6
I00
sg7
I00
sg8
(lp408
I486
asg10
I01
ssS'msp'
p409
(dp410
g4
S'Message Send Protocol'
p411
sg6
I01
sg7
I00
sg8
(lp412
I18
asg10
I01
ssS'emce'
p413
(dp414
g4
S'CCWS mm conf'
p415
sg6
I01
sg7
I00
sg8
(lp416
I2004
asg10
I00
ssS'https'
p417
(dp418
g4
S'secure http (SSL)'
p419
sg6
I01
sg7
I00
sg8
(lp420
I443
asg10
I01
ssS'ohimsrv'
p421
(dp422
g4
S''
sg6
I01
sg7
I00
sg8
(lp423
I506
asg10
I01
ssS'pop3s'
p424
(dp425
g4
S'POP3 protocol over TLS/SSL'
p426
sg6
I00
sg7
I00
sg8
(lp427
I995
asg10
I01
ssS'xdsxdm'
p428
(dp429
g4
S''
sg6
I01
sg7
I00
sg8
(lp430
I6558
asg10
I01
ssS'nessus'
p431
(dp432
g4
S'Nessus or remote message server'
p433
sg6
I00
sg7
I00
sg8
(lp434
I1241
asg10
I01
ssS'infoseek'
p435
(dp436
g4
S''
sg6
I01
sg7
I00
sg8
(lp437
I414
asg10
I01
ssS'cacp'
p438
(dp439
g4
S'Gateway Access Control Protocol'
p440
sg6
I01
sg7
I00
sg8
(lp441
I190
asg10
I00
ssS'kauth'
p442
(dp443
g4
S'Remote kauth'
p444
sg6
I00
sg7
I00
sg8
(lp445
I2120
asg10
I01
ssS'vmodem'
p446
(dp447
g4
S''
sg6
I01
sg7
I00
sg8
(lp448
I3141
asg10
I01
ssS'phone'
p449
(dp450
g4
S'conference calling'
p451
sg6
I01
sg7
I00
sg8
(lp452
I1167
asg10
I00
ssS'ocbinder'
p453
(dp454
g4
S''
sg6
I01
sg7
I00
sg8
(lp455
I183
asg10
I01
ssS'netgw'
p456
(dp457
g4
S''
sg6
I01
sg7
I00
sg8
(lp458
I741
asg10
I01
ssS'doom'
p459
(dp460
g4
S'Id Software Doom'
p461
sg6
I01
sg7
I00
sg8
(lp462
I666
asg10
I01
ssS'acmaint_transd'
p463
(dp464
g4
S''
sg6
I01
sg7
I00
sg8
(lp465
I775
asg10
I00
ssS'gdomap'
p466
(dp467
g4
S''
sg6
I01
sg7
I00
sg8
(lp468
I538
asg10
I01
ssS'tacacs'
p469
(dp470
g4
S'Login Host Protocol (TACACS)'
p471
sg6
I01
sg7
I00
sg8
(lp472
I49
asg10
I01
ssS'ulp'
p473
(dp474
g4
S''
sg6
I01
sg7
I00
sg8
(lp475
I522
asg10
I01
ssS'ajp12'
p476
(dp477
g4
S'Apache JServ Protocol 1.x'
p478
sg6
I00
sg7
I00
sg8
(lp479
I8007
asg10
I01
ssS'sygatefw'
p480
(dp481
g4
S'Sygate Firewall management port version 3.0 build 521 and above'
p482
sg6
I01
sg7
I00
sg8
(lp483
I39213
asg10
I00
ssS'tpip'
p484
(dp485
g4
S''
sg6
I01
sg7
I00
sg8
(lp486
I594
asg10
I01
ssS'vmnet'
p487
(dp488
g4
S''
sg6
I01
sg7
I00
sg8
(lp489
I175
asg10
I01
ssS'halflife'
p490
(dp491
g4
S'Half-life game server'
p492
sg6
I01
sg7
I00
sg8
(lp493
I27015
asg10
I00
ssS'cal'
p494
(dp495
g4
S''
sg6
I01
sg7
I00
sg8
(lp496
I588
asg10
I01
ssS'iafserver'
p497
(dp498
g4
S''
sg6
I01
sg7
I00
sg8
(lp499
I479
asg10
I01
ssS'webster'
p500
(dp501
g4
S''
sg6
I01
sg7
I00
sg8
(lp502
I765
aI2627
asg10
I01
ssS'quakeworld'
p503
(dp504
g4
S'Quake world'
p505
sg6
I01
sg7
I00
sg8
(lp506
I27500
asg10
I00
ssS'vettcp'
p507
(dp508
g4
S''
sg6
I01
sg7
I00
sg8
(lp509
I78
asg10
I01
ssS'lockd'
p510
(dp511
g4
S''
sg6
I01
sg7
I00
sg8
(lp512
I4045
asg10
I01
ssS'corbaloc'
p513
(dp514
g4
S'Corba'
p515
sg6
I00
sg7
I00
sg8
(lp516
I2809
asg10
I01
ssS'openport'
p517
(dp518
g4
S''
sg6
I01
sg7
I00
sg8
(lp519
I260
asg10
I01
ssS'kpasswd'
p520
(dp521
g4
S'kpwd Kerberos (v4) "passwd"'
p522
sg6
I00
sg7
I00
sg8
(lp523
I761
asg10
I01
ssS'interbase'
p524
(dp525
g4
S''
sg6
I01
sg7
I00
sg8
(lp526
I2041
asg10
I01
ssS'smtp'
p527
(dp528
g4
S'Simple Mail Transfer'
p529
sg6
I01
sg7
I00
sg8
(lp530
I25
asg10
I01
ssS'globalcatLDAP'
p531
(dp532
g4
S'Global Catalog LDAP'
p533
sg6
I00
sg7
I00
sg8
(lp534
I3268
asg10
I01
ssS'intecourier'
p535
(dp536
g4
S''
sg6
I01
sg7
I00
sg8
(lp537
I495
asg10
I01
ssS'swgps'
p538
(dp539
g4
S'Nortel Java S/WGPS Global Payment Solutions for US credit card authorizations'
p540
sg6
I00
sg7
I00
sg8
(lp541
I15126
asg10
I01
ssS'xtell'
p542
(dp543
g4
S'Xtell messenging server'
p544
sg6
I00
sg7
I00
sg8
(lp545
I4224
asg10
I01
ssS'tam'
p546
(dp547
g4
S'Trivial Authenticated Mail Protocol'
p548
sg6
I01
sg7
I00
sg8
(lp549
I209
asg10
I01
ssS'callbook'
p550
(dp551
g4
S''
sg6
I01
sg7
I00
sg8
(lp552
I2000
asg10
I01
ssS'interhdl_elmd'
p553
(dp554
g4
S'interHDL License Manager'
p555
sg6
I01
sg7
I00
sg8
(lp556
I1454
asg10
I01
ssS'sip'
p557
(dp558
g4
S'Session Initiation Protocol (SIP)'
p559
sg6
I01
sg7
I00
sg8
(lp560
I5060
asg10
I01
ssS'vslmp'
p561
(dp562
g4
S''
sg6
I01
sg7
I00
sg8
(lp563
I312
asg10
I01
ssS'nmsp'
p564
(dp565
g4
S'Networked Media Streaming Protocol'
p566
sg6
I01
sg7
I00
sg8
(lp567
I537
asg10
I01
ssS'globalcatLDAPssl'
p568
(dp569
g4
S'Global Catalog LDAP over ssl'
p570
sg6
I00
sg7
I00
sg8
(lp571
I3269
asg10
I01
ssS'telnets'
p572
(dp573
g4
S'telnet protocol over TLS/SSL'
p574
sg6
I00
sg7
I00
sg8
(lp575
I992
asg10
I01
ssS'smsd'
p576
(dp577
g4
S''
sg6
I01
sg7
I00
sg8
(lp578
I596
asg10
I01
ssS'lotusnotes'
p579
(dp580
g4
S'Lotus Note'
p581
sg6
I01
sg7
I00
sg8
(lp582
I1352
asg10
I01
ssS'mmcc'
p583
(dp584
g4
S'multimedia conference control tool'
p585
sg6
I01
sg7
I00
sg8
(lp586
I5050
asg10
I01
ssS'flexlm9'
p587
(dp588
g4
S'FlexLM license manager additional ports'
p589
sg6
I00
sg7
I00
sg8
(lp590
I27009
asg10
I01
ssS'cycleserv'
p591
(dp592
g4
S''
sg6
I01
sg7
I00
sg8
(lp593
I763
asg10
I01
ssS'dwf'
p594
(dp595
g4
S'Tandem Distributed Workbench Facility'
p596
sg6
I01
sg7
I00
sg8
(lp597
I1450
asg10
I01
ssS'mumps'
p598
(dp599
g4
S"Plus Five's MUMPS"
p600
sg6
I01
sg7
I00
sg8
(lp601
I188
asg10
I01
ssS'flexlm3'
p602
(dp603
g4
S'FlexLM license manager additional ports'
p604
sg6
I00
sg7
I00
sg8
(lp605
I27003
asg10
I01
ssS'smsp'
p606
(dp607
g4
S''
sg6
I01
sg7
I00
sg8
(lp608
I413
asg10
I01
ssS'mdbs_daemon'
p609
(dp610
g4
S''
sg6
I01
sg7
I00
sg8
(lp611
I800
asg10
I01
ssS'flexlm0'
p612
(dp613
g4
S'FlexLM license manager additional ports'
p614
sg6
I00
sg7
I00
sg8
(lp615
I27000
asg10
I01
ssS'flexlm7'
p616
(dp617
g4
S'FlexLM license manager additional ports'
p618
sg6
I00
sg7
I00
sg8
(lp619
I27007
asg10
I01
ssS'flexlm6'
p620
(dp621
g4
S'FlexLM license manager additional ports'
p622
sg6
I00
sg7
I00
sg8
(lp623
I27006
asg10
I01
ssS'flexlm5'
p624
(dp625
g4
S'FlexLM license manager additional ports'
p626
sg6
I00
sg7
I00
sg8
(lp627
I27005
asg10
I01
ssS'afs'
p628
(dp629
g4
S'AFS License Manager'
p630
sg6
I01
sg7
I00
sg8
(lp631
I1483
asg10
I01
ssS'deviceshare'
p632
(dp633
g4
S''
sg6
I01
sg7
I00
sg8
(lp634
I552
asg10
I01
ssS'lam'
p635
(dp636
g4
S''
sg6
I01
sg7
I00
sg8
(lp637
I2040
asg10
I01
ssS'quicktime'
p638
(dp639
g4
S'Apple Darwin and QuickTime Streaming Administration Servers'
p640
sg6
I00
sg7
I00
sg8
(lp641
I1220
asg10
I01
ssS'csdmbase'
p642
(dp643
g4
S''
sg6
I01
sg7
I00
sg8
(lp644
I1467
aI1471
asg10
I01
ssS'idfp'
p645
(dp646
g4
S''
sg6
I01
sg7
I00
sg8
(lp647
I549
asg10
I01
ssS'connlcli'
p648
(dp649
g4
S''
sg6
I01
sg7
I00
sg8
(lp650
I1358
asg10
I01
ssS'aol'
p651
(dp652
g4
S'America-Online.  Also can be used by ICQ'
p653
sg6
I01
sg7
I00
sg8
(lp654
I5190
asg10
I01
ssS'hpnpd'
p655
(dp656
g4
S'Hewlett-Packard Network Printer daemon'
p657
sg6
I01
sg7
I00
sg8
(lp658
I22370
asg10
I01
ssS'netcheque'
p659
(dp660
g4
S'NetCheque accounting'
p661
sg6
I01
sg7
I00
sg8
(lp662
I4008
asg10
I01
ssS'advocentkvm'
p663
(dp664
g4
S'Advocent KVM Server'
p665
sg6
I00
sg7
I00
sg8
(lp666
I2068
asg10
I01
ssS'X11'
p667
(dp668
g4
S'X Window server'
p669
sg6
I00
sg7
I00
sg8
(lp670
I6000
asg10
I01
ssS'kpasswd5'
p671
(dp672
g4
S'Kerberos (v5)'
p673
sg6
I01
sg7
I00
sg8
(lp674
I464
asg10
I01
ssS'scoi2odialog'
p675
(dp676
g4
S''
sg6
I01
sg7
I00
sg8
(lp677
I360
asg10
I01
ssS'npp'
p678
(dp679
g4
S'Network Printing Protocol'
p680
sg6
I01
sg7
I00
sg8
(lp681
I92
asg10
I01
ssS'CarbonCopy'
p682
(dp683
g4
S''
sg6
I00
sg7
I00
sg8
(lp684
I1680
asg10
I01
ssS'whois'
p685
(dp686
g4
S'nicname'
p687
sg6
I01
sg7
I00
sg8
(lp688
I43
asg10
I01
ssS'issd'
p689
(dp690
g4
S''
sg6
I01
sg7
I00
sg8
(lp691
I1600
asg10
I01
ssS'omid'
p692
(dp693
g4
S'OpenMosix Info Dissemination'
p694
sg6
I01
sg7
I00
sg8
(lp695
I5428
asg10
I00
ssS'rellpack'
p696
(dp697
g4
S''
sg6
I01
sg7
I00
sg8
(lp698
I2018
asg10
I00
ssS'smakynet'
p699
(dp700
g4
S''
sg6
I01
sg7
I00
sg8
(lp701
I122
asg10
I01
ssS'ocserver'
p702
(dp703
g4
S''
sg6
I01
sg7
I00
sg8
(lp704
I184
asg10
I01
ssS'bftp'
p705
(dp706
g4
S'Background File Transfer Program'
p707
sg6
I01
sg7
I00
sg8
(lp708
I152
asg10
I01
ssS'wins'
p709
(dp710
g4
S"Microsoft's Windows Internet Name Service"
p711
sg6
I01
sg7
I00
sg8
(lp712
I1512
asg10
I01
ssS'flexlm2'
p713
(dp714
g4
S'FlexLM license manager additional ports'
p715
sg6
I00
sg7
I00
sg8
(lp716
I27002
asg10
I01
ssS'kryptolan'
p717
(dp718
g4
S''
sg6
I01
sg7
I00
sg8
(lp719
I398
asg10
I01
ssS'cadlock'
p720
(dp721
g4
S''
sg6
I01
sg7
I00
sg8
(lp722
I770
aI1000
asg10
I01
ssS'cfdptkt'
p723
(dp724
g4
S''
sg6
I01
sg7
I00
sg8
(lp725
I120
asg10
I01
ssS'wincim'
p726
(dp727
g4
S'pc windows compuserve.com protocol'
p728
sg6
I00
sg7
I00
sg8
(lp729
I4144
asg10
I01
ssS'eyelink'
p730
(dp731
g4
S''
sg6
I01
sg7
I00
sg8
(lp732
I589
asg10
I01
ssS'uaac'
p733
(dp734
g4
S'UAAC Protocol'
p735
sg6
I01
sg7
I00
sg8
(lp736
I145
asg10
I01
ssS'vmpwscs'
p737
(dp738
g4
S''
sg6
I01
sg7
I00
sg8
(lp739
I214
asg10
I01
ssS'bootserver'
p740
(dp741
g4
S''
sg6
I01
sg7
I00
sg8
(lp742
I2016
asg10
I01
ssS'talk'
p743
(dp744
g4
S'like tenex link, but across'
p745
sg6
I01
sg7
I00
sg8
(lp746
I517
asg10
I01
ssS'sd'
p747
(dp748
g4
S'Session Director'
p749
sg6
I01
sg7
I00
sg8
(lp750
I9876
asg10
I01
ssS'jetdirect'
p751
(dp752
g4
S'HP JetDirect card'
p753
sg6
I00
sg7
I00
sg8
(lp754
I9100
aI9101
aI9102
aI9103
aI9104
aI9105
aI9106
aI9107
asg10
I01
ssS'xtreelic'
p755
(dp756
g4
S'XTREE License Server'
p757
sg6
I00
sg7
I00
sg8
(lp758
I996
asg10
I01
ssS'flexlm8'
p759
(dp760
g4
S'FlexLM license manager additional ports'
p761
sg6
I00
sg7
I00
sg8
(lp762
I27008
asg10
I01
ssS'meter'
p763
(dp764
g4
S'demon'
p765
sg6
I01
sg7
I00
sg8
(lp766
I570
asg10
I01
ssS'glogger'
p767
(dp768
g4
S''
sg6
I01
sg7
I00
sg8
(lp769
I2033
asg10
I01
ssS'creativepartnr'
p770
(dp771
g4
S''
sg6
I01
sg7
I00
sg8
(lp772
I455
asg10
I01
ssS'qmqp'
p773
(dp774
g4
S'Qmail Quick Mail Queueing'
p775
sg6
I00
sg7
I00
sg8
(lp776
I628
asg10
I01
ssS'quake'
p777
(dp778
g4
S'Quake game server'
p779
sg6
I01
sg7
I00
sg8
(lp780
I26000
asg10
I00
ssS'xdmcp'
p781
(dp782
g4
S'X Display Mgr. Control Proto'
p783
sg6
I01
sg7
I00
sg8
(lp784
I177
asg10
I01
ssS'appleqtc'
p785
(dp786
g4
S'apple quick time'
p787
sg6
I01
sg7
I00
sg8
(lp788
I458
asg10
I01
ssS'Trinoo_Register'
p789
(dp790
g4
S'Trinoo distributed attack tool Bcast Daemon registration port'
p791
sg6
I01
sg7
I00
sg8
(lp792
I31335
asg10
I00
ssS'qbikgdp'
p793
(dp794
g4
S''
sg6
I01
sg7
I00
sg8
(lp795
I368
asg10
I01
ssS'scoremgr'
p796
(dp797
g4
S''
sg6
I01
sg7
I00
sg8
(lp798
I2034
asg10
I01
ssS'monitor'
p799
(dp800
g4
S''
sg6
I01
sg7
I00
sg8
(lp801
I561
asg10
I01
ssS'ellpack'
p802
(dp803
g4
S''
sg6
I00
sg7
I00
sg8
(lp804
I2025
asg10
I01
ssS'hylafax'
p805
(dp806
g4
S'HylaFAX client-server protocol'
p807
sg6
I00
sg7
I00
sg8
(lp808
I4559
asg10
I01
ssS'rsvd'
p809
(dp810
g4
S''
sg6
I01
sg7
I00
sg8
(lp811
I168
asg10
I01
ssS'decap'
p812
(dp813
g4
S''
sg6
I01
sg7
I00
sg8
(lp814
I403
asg10
I01
ssS'maybeveritas'
p815
(dp816
g4
S''
sg6
I00
sg7
I00
sg8
(lp817
I4987
aI4998
asg10
I01
ssS'uaiact'
p818
(dp819
g4
S'Universal Analytics'
p820
sg6
I01
sg7
I00
sg8
(lp821
I1470
asg10
I01
ssS'pcm'
p822
(dp823
g4
S'PCM Agent (AutoSecure Policy Compliance Manager'
p824
sg6
I00
sg7
I00
sg8
(lp825
I1827
asg10
I01
ssS'kshell'
p826
(dp827
g4
S'krcmd Kerberos (v4/v5)'
p828
sg6
I01
sg7
I00
sg8
(lp829
I544
asg10
I01
ssS'rwhois'
p830
(dp831
g4
S'Remote Who Is'
p832
sg6
I01
sg7
I00
sg8
(lp833
I4321
asg10
I01
ssS'dmdocbroker'
p834
(dp835
g4
S''
sg6
I01
sg7
I00
sg8
(lp836
I1489
asg10
I01
ssS'rgtp'
p837
(dp838
g4
S'Reverse Gossip Transport'
p839
sg6
I01
sg7
I00
sg8
(lp840
I1431
asg10
I01
ssS'postgres'
p841
(dp842
g4
S'postgres database server'
p843
sg6
I00
sg7
I00
sg8
(lp844
I5432
asg10
I01
ssS'pptp'
p845
(dp846
g4
S'Point-to-point tunnelling protocol'
p847
sg6
I00
sg7
I00
sg8
(lp848
I1723
asg10
I01
ssS'eklogin'
p849
(dp850
g4
S'Kerberos (v4) encrypted rlogin'
p851
sg6
I01
sg7
I00
sg8
(lp852
I2105
asg10
I01
ssS'rndc'
p853
(dp854
g4
S'RNDC is used by BIND 9 (& probably other NS)'
p855
sg6
I00
sg7
I00
sg8
(lp856
I953
asg10
I01
ssS'mloadd'
p857
(dp858
g4
S'mloadd monitoring tool'
p859
sg6
I01
sg7
I00
sg8
(lp860
I1427
asg10
I01
ssS'auth'
p861
(dp862
g4
S'ident, tap, Authentication Service'
p863
sg6
I01
sg7
I00
sg8
(lp864
I113
asg10
I01
ssS'dlip'
p865
(dp866
g4
S''
sg6
I01
sg7
I00
sg8
(lp867
I7201
asg10
I01
ssS'mcidas'
p868
(dp869
g4
S'McIDAS Data Transmission Protocol'
p870
sg6
I01
sg7
I00
sg8
(lp871
I112
asg10
I01
ssS'wnn6_Kr'
p872
(dp873
g4
S'Wnn6 (Korean input)'
p874
sg6
I00
sg7
I00
sg8
(lp875
I22305
asg10
I01
ssS'rww'
p876
(dp877
g4
S'Microsoft Remote Web Workplace on Small Business Server'
p878
sg6
I00
sg7
I00
sg8
(lp879
I4125
asg10
I01
ssS'saft'
p880
(dp881
g4
S'saft Simple Asynchronous File Transfer'
p882
sg6
I01
sg7
I00
sg8
(lp883
I487
asg10
I01
ssS'contentserver'
p884
(dp885
g4
S''
sg6
I01
sg7
I00
sg8
(lp886
I454
asg10
I01
ssS'nucleus'
p887
(dp888
g4
S''
sg6
I01
sg7
I00
sg8
(lp889
I1463
asg10
I01
ssS'peerenabler'
p890
(dp891
g4
S'P2PNetworking/PeerEnabler protocol'
p892
sg6
I01
sg7
I00
sg8
(lp893
I3531
asg10
I01
ssS'smartsdp'
p894
(dp895
g4
S''
sg6
I01
sg7
I00
sg8
(lp896
I426
asg10
I01
ssS'symplex'
p897
(dp898
g4
S''
sg6
I01
sg7
I00
sg8
(lp899
I1507
asg10
I01
ssS'nfa'
p900
(dp901
g4
S'Network File Access'
p902
sg6
I01
sg7
I00
sg8
(lp903
I1155
asg10
I01
ssS'prospero'
p904
(dp905
g4
S'Prospero Directory Service'
p906
sg6
I01
sg7
I00
sg8
(lp907
I191
asg10
I01
ssS'opsec_sam'
p908
(dp909
g4
S'Check Point OPSEC'
p910
sg6
I00
sg7
I00
sg8
(lp911
I18183
asg10
I01
ssS'namp'
p912
(dp913
g4
S''
sg6
I01
sg7
I00
sg8
(lp914
I167
asg10
I01
ssS'metagram'
p915
(dp916
g4
S'Metagram Relay'
p917
sg6
I01
sg7
I00
sg8
(lp918
I99
asg10
I01
ssS'snews'
p919
(dp920
g4
S''
sg6
I01
sg7
I00
sg8
(lp921
I563
asg10
I01
ssS'shivasound'
p922
(dp923
g4
S'Shiva Sound'
p924
sg6
I01
sg7
I00
sg8
(lp925
I1549
asg10
I00
ssS'man'
p926
(dp927
g4
S''
sg6
I01
sg7
I00
sg8
(lp928
I9535
asg10
I01
ssS'scohelp'
p929
(dp930
g4
S''
sg6
I01
sg7
I00
sg8
(lp931
I457
asg10
I01
ssS'flexlm4'
p932
(dp933
g4
S'FlexLM license manager additional ports'
p934
sg6
I00
sg7
I00
sg8
(lp935
I27004
asg10
I01
ssS'profile'
p936
(dp937
g4
S'PROFILE Naming System'
p938
sg6
I01
sg7
I00
sg8
(lp939
I136
asg10
I01
ssS'domain'
p940
(dp941
g4
S'Domain Name Server'
p942
sg6
I01
sg7
I00
sg8
(lp943
I53
asg10
I01
ssS'dixie'
p944
(dp945
g4
S'DIXIE Protocol Specification'
p946
sg6
I01
sg7
I00
sg8
(lp947
I96
asg10
I01
ssS'teedtap'
p948
(dp949
g4
S''
sg6
I01
sg7
I00
sg8
(lp950
I559
asg10
I01
ssS'heretic2'
p951
(dp952
g4
S'Heretic 2 game server'
p953
sg6
I01
sg7
I00
sg8
(lp954
I28910
asg10
I00
ssS'ospfd'
p955
(dp956
g4
S'OSPFd vty'
p957
sg6
I00
sg7
I00
sg8
(lp958
I2604
asg10
I01
ssS'globe'
p959
(dp960
g4
S''
sg6
I01
sg7
I00
sg8
(lp961
I2002
asg10
I01
ssS'cichlid'
p962
(dp963
g4
S'Cichlid License Manager'
p964
sg6
I01
sg7
I00
sg8
(lp965
I1377
asg10
I01
ssS'wnn6_Tw'
p966
(dp967
g4
S'Wnn6 (Taiwanse input)'
p968
sg6
I00
sg7
I00
sg8
(lp969
I22321
asg10
I01
ssS'zebra'
p970
(dp971
g4
S'zebra vty'
p972
sg6
I00
sg7
I00
sg8
(lp973
I2601
asg10
I01
ssS'iasd'
p974
(dp975
g4
S''
sg6
I01
sg7
I00
sg8
(lp976
I432
asg10
I01
ssS'opsec_omi'
p977
(dp978
g4
S'Check Point OPSEC'
p979
sg6
I00
sg7
I00
sg8
(lp980
I18185
asg10
I01
ssS'ftp'
p981
(dp982
g4
S'File Transfer [Control]'
p983
sg6
I01
sg7
I00
sg8
(lp984
I21
asg10
I01
ssS'carracho'
p985
(dp986
g4
S'Carracho file sharing'
p987
sg6
I00
sg7
I00
sg8
(lp988
I6700
aI6701
asg10
I01
ssS'puparp'
p989
(dp990
g4
S''
sg6
I01
sg7
I00
sg8
(lp991
I998
asg10
I00
ssS'saposs'
p992
(dp993
g4
S'SAP Oss'
p994
sg6
I00
sg7
I00
sg8
(lp995
I3397
asg10
I01
ssS'msl_lmd'
p996
(dp997
g4
S'MSL License Manager'
p998
sg6
I01
sg7
I00
sg8
(lp999
I1464
asg10
I01
ssS'skkserv'
p1000
(dp1001
g4
S'SKK (kanji input)'
p1002
sg6
I00
sg7
I00
sg8
(lp1003
I1178
asg10
I01
ssS'busboy'
p1004
(dp1005
g4
S''
sg6
I00
sg7
I00
sg8
(lp1006
I998
asg10
I01
ssS'netinfo'
p1007
(dp1008
g4
S'Netinfo is apparently on many OS X boxes.'
p1009
sg6
I00
sg7
I00
sg8
(lp1010
I1033
asg10
I01
ssS'dsp'
p1011
(dp1012
g4
S'Display Support Protocol'
p1013
sg6
I01
sg7
I00
sg8
(lp1014
I33
asg10
I01
ssS'coauthor'
p1015
(dp1016
g4
S'oracle'
p1017
sg6
I01
sg7
I00
sg8
(lp1018
I1529
asg10
I00
ssS'dsf'
p1019
(dp1020
g4
S''
sg6
I01
sg7
I00
sg8
(lp1021
I555
asg10
I01
ssS'krbupdate'
p1022
(dp1023
g4
S'kreg Kerberos (v4) registration'
p1024
sg6
I00
sg7
I00
sg8
(lp1025
I760
asg10
I01
ssS'custix'
p1026
(dp1027
g4
S'Customer IXChange'
p1028
sg6
I01
sg7
I00
sg8
(lp1029
I528
asg10
I01
ssS'rtelnet'
p1030
(dp1031
g4
S'Remote Telnet'
p1032
sg6
I01
sg7
I00
sg8
(lp1033
I107
asg10
I01
ssS'kip'
p1034
(dp1035
g4
S'IP over kerberos'
p1036
sg6
I00
sg7
I00
sg8
(lp1037
I2112
asg10
I01
ssS'utcd'
p1038
(dp1039
g4
S'Universal Time daemon (utcd)'
p1040
sg6
I01
sg7
I00
sg8
(lp1041
I1506
asg10
I01
ssS'pciarray'
p1042
(dp1043
g4
S''
sg6
I01
sg7
I00
sg8
(lp1044
I1552
asg10
I01
ssS'overnet'
p1045
(dp1046
g4
S'Overnet file sharing'
p1047
sg6
I01
sg7
I00
sg8
(lp1048
I16444
asg10
I01
ssS'ntp'
p1049
(dp1050
g4
S'Network Time Protocol'
p1051
sg6
I01
sg7
I00
sg8
(lp1052
I123
asg10
I01
ssS'secureidprop'
p1053
(dp1054
g4
S'ACE/Server services'
p1055
sg6
I00
sg7
I00
sg8
(lp1056
I5510
asg10
I01
ssS'tempo'
p1057
(dp1058
g4
S'newdate'
p1059
sg6
I01
sg7
I00
sg8
(lp1060
I526
asg10
I01
ssS'netviewdm3'
p1061
(dp1062
g4
S'IBM NetView DM/6000 receive/tcp'
p1063
sg6
I01
sg7
I00
sg8
(lp1064
I731
asg10
I01
ssS'netviewdm2'
p1065
(dp1066
g4
S'IBM NetView DM/6000 send/tcp'
p1067
sg6
I01
sg7
I00
sg8
(lp1068
I730
asg10
I01
ssS'asa'
p1069
(dp1070
g4
S'ASA Message Router Object Def.'
p1071
sg6
I01
sg7
I00
sg8
(lp1072
I386
asg10
I01
ssS'miroconnect'
p1073
(dp1074
g4
S''
sg6
I01
sg7
I00
sg8
(lp1075
I1532
asg10
I01
ssS'hermes'
p1076
(dp1077
g4
S''
sg6
I01
sg7
I00
sg8
(lp1078
I1248
asg10
I01
ssS'rlp'
p1079
(dp1080
g4
S'Resource Location Protocol'
p1081
sg6
I01
sg7
I00
sg8
(lp1082
I39
asg10
I01
ssS'flexlm1'
p1083
(dp1084
g4
S'FlexLM license manager additional ports'
p1085
sg6
I00
sg7
I00
sg8
(lp1086
I27001
asg10
I01
ssS'objcall'
p1087
(dp1088
g4
S'Tivoli Object Dispatcher'
p1089
sg6
I01
sg7
I00
sg8
(lp1090
I94
asg10
I01
ssS'pythonds'
p1091
(dp1092
g4
S'Python Documentation Server'
p1093
sg6
I00
sg7
I00
sg8
(lp1094
I7464
asg10
I01
ssS'ufsd'
p1095
(dp1096
g4
S'ufsd\t\t# UFS-aware server'
p1097
sg6
I01
sg7
I00
sg8
(lp1098
I1008
asg10
I01
ssS'route'
p1099
(dp1100
g4
S'router routed -- RIP'
p1101
sg6
I01
sg7
I00
sg8
(lp1102
I520
asg10
I00
ssS'covia'
p1103
(dp1104
g4
S'Communications Integrator (CI)'
p1105
sg6
I01
sg7
I00
sg8
(lp1106
I64
asg10
I01
ssS'ups'
p1107
(dp1108
g4
S'Uninterruptible Power Supply'
p1109
sg6
I01
sg7
I00
sg8
(lp1110
I401
asg10
I01
ssS'servserv'
p1111
(dp1112
g4
S''
sg6
I01
sg7
I00
sg8
(lp1113
I2011
asg10
I00
ssS'ats'
p1114
(dp1115
g4
S'Advanced Training System Program'
p1116
sg6
I01
sg7
I00
sg8
(lp1117
I2201
asg10
I01
ssS'timed'
p1118
(dp1119
g4
S'timeserver'
p1120
sg6
I01
sg7
I00
sg8
(lp1121
I525
asg10
I01
ssS'seosload'
p1122
(dp1123
g4
S'From the new Computer Associates eTrust ACX'
p1124
sg6
I00
sg7
I00
sg8
(lp1125
I8892
asg10
I01
ssS'essbase'
p1126
(dp1127
g4
S'Essbase Arbor Software'
p1128
sg6
I01
sg7
I00
sg8
(lp1129
I1423
asg10
I01
ssS'ptcnameservice'
p1130
(dp1131
g4
S'PTC Name Service'
p1132
sg6
I01
sg7
I00
sg8
(lp1133
I597
asg10
I01
ssS'rtsp'
p1134
(dp1135
g4
S'Real Time Stream Control Protocol'
p1136
sg6
I01
sg7
I00
sg8
(lp1137
I554
asg10
I01
ssS'terminaldb'
p1138
(dp1139
g4
S''
sg6
I01
sg7
I00
sg8
(lp1140
I2008
aI2018
asg10
I01
ssS'echo'
p1141
(dp1142
g4
S''
sg6
I01
sg7
I00
sg8
(lp1143
I7
asg10
I01
ssS'rpcbind'
p1144
(dp1145
g4
S'portmapper, rpcbind'
p1146
sg6
I01
sg7
I00
sg8
(lp1147
I111
asg10
I01
ssS'notify'
p1148
(dp1149
g4
S''
sg6
I01
sg7
I00
sg8
(lp1150
I773
asg10
I00
ssS'csdm'
p1151
(dp1152
g4
S''
sg6
I01
sg7
I00
sg8
(lp1153
I1468
aI1472
asg10
I01
ssS'proshareaudio'
p1154
(dp1155
g4
S'proshare conf audio'
p1156
sg6
I01
sg7
I00
sg8
(lp1157
I5713
asg10
I01
ssS'bh611'
p1158
(dp1159
g4
S''
sg6
I01
sg7
I00
sg8
(lp1160
I354
asg10
I01
ssS'shivadiscovery'
p1161
(dp1162
g4
S'Shiva'
p1163
sg6
I01
sg7
I00
sg8
(lp1164
I1502
asg10
I01
ssS'gkrellmd'
p1165
(dp1166
g4
S'GKrellM remote system activity meter daemon'
p1167
sg6
I00
sg7
I00
sg8
(lp1168
I19150
asg10
I01
ssS'bwnfs'
p1169
(dp1170
g4
S'BW-NFS DOS Authentication'
p1171
sg6
I01
sg7
I00
sg8
(lp1172
I650
asg10
I00
ssS'ivsd'
p1173
(dp1174
g4
S'IVS Daemon'
p1175
sg6
I01
sg7
I00
sg8
(lp1176
I2241
asg10
I01
ssS'rplay'
p1177
(dp1178
g4
S''
sg6
I01
sg7
I00
sg8
(lp1179
I5555
asg10
I00
ssS'creativeserver'
p1180
(dp1181
g4
S''
sg6
I01
sg7
I00
sg8
(lp1182
I453
asg10
I01
ssS'airs'
p1183
(dp1184
g4
S''
sg6
I01
sg7
I00
sg8
(lp1185
I1481
asg10
I01
ssS'odmr'
p1186
(dp1187
g4
S''
sg6
I01
sg7
I00
sg8
(lp1188
I366
asg10
I01
ssS'amidxtape'
p1189
(dp1190
g4
S'Amanda tape indexing'
p1191
sg6
I00
sg7
I00
sg8
(lp1192
I10083
asg10
I01
ssS'siam'
p1193
(dp1194
g4
S''
sg6
I01
sg7
I00
sg8
(lp1195
I498
asg10
I01
ssS'dnsix'
p1196
(dp1197
g4
S'DNSIX Securit Attribute Token Map'
p1198
sg6
I01
sg7
I00
sg8
(lp1199
I90
asg10
I01
ssS'UPnP'
p1200
(dp1201
g4
S'Universal PnP'
p1202
sg6
I01
sg7
I00
sg8
(lp1203
I1900
aI5000
asg10
I01
ssS'listen'
p1204
(dp1205
g4
S'System V listener port'
p1206
sg6
I00
sg7
I00
sg8
(lp1207
I2766
asg10
I01
ssS'dbstar'
p1208
(dp1209
g4
S''
sg6
I01
sg7
I00
sg8
(lp1210
I1415
asg10
I01
ssS'shell'
p1211
(dp1212
g4
S'BSD rshd(8)'
p1213
sg6
I00
sg7
I00
sg8
(lp1214
I514
asg10
I01
ssS'wizard'
p1215
(dp1216
g4
S'curry'
p1217
sg6
I01
sg7
I00
sg8
(lp1218
I2001
asg10
I00
ssS'courier'
p1219
(dp1220
g4
S'rpc'
p1221
sg6
I01
sg7
I00
sg8
(lp1222
I530
asg10
I01
ssS'bootclient'
p1223
(dp1224
g4
S''
sg6
I01
sg7
I00
sg8
(lp1225
I2017
asg10
I00
ssS'ncp'
p1226
(dp1227
g4
S''
sg6
I01
sg7
I00
sg8
(lp1228
I524
asg10
I01
ssS'direct'
p1229
(dp1230
g4
S''
sg6
I01
sg7
I00
sg8
(lp1231
I242
asg10
I01
ssS'securid'
p1232
(dp1233
g4
S'SecurID'
p1234
sg6
I01
sg7
I00
sg8
(lp1235
I5500
asg10
I00
ssS'decladebug'
p1236
(dp1237
g4
S'DECLadebug Remote Debug Protocol'
p1238
sg6
I01
sg7
I00
sg8
(lp1239
I410
asg10
I01
ssS'issa'
p1240
(dp1241
g4
S'ISS System Scanner Agent'
p1242
sg6
I00
sg7
I00
sg8
(lp1243
I9991
asg10
I01
ssS'dtk'
p1244
(dp1245
g4
S'Deception Tool Kit (www.all.net) '
p1246
sg6
I01
sg7
I00
sg8
(lp1247
I365
asg10
I01
ssS'cuillamartin'
p1248
(dp1249
g4
S'CuillaMartin Company'
p1250
sg6
I01
sg7
I00
sg8
(lp1251
I1356
asg10
I01
ssS'issc'
p1252
(dp1253
g4
S'ISS System Scanner Console'
p1254
sg6
I00
sg7
I00
sg8
(lp1255
I9992
asg10
I01
ssS'pcduo'
p1256
(dp1257
g4
S'RemCon PC-Duo - new port'
p1258
sg6
I00
sg7
I00
sg8
(lp1259
I5405
asg10
I01
ssS'napster'
p1260
(dp1261
g4
S'Napster File (MP3) sharing  software'
p1262
sg6
I00
sg7
I00
sg8
(lp1263
I6699
asg10
I01
ssS'anynetgateway'
p1264
(dp1265
g4
S''
sg6
I01
sg7
I00
sg8
(lp1266
I1491
asg10
I01
ssS'privoxy'
p1267
(dp1268
g4
S'Privoxy, www.privoxy.org'
p1269
sg6
I00
sg7
I00
sg8
(lp1270
I8118
asg10
I01
ssS'timeflies'
p1271
(dp1272
g4
S''
sg6
I01
sg7
I00
sg8
(lp1273
I1362
asg10
I01
ssS'stx'
p1274
(dp1275
g4
S'Stock IXChange'
p1276
sg6
I01
sg7
I00
sg8
(lp1277
I527
asg10
I01
ssS'telelpathstart'
p1278
(dp1279
g4
S''
sg6
I01
sg7
I00
sg8
(lp1280
I5010
asg10
I01
ssS'nqs'
p1281
(dp1282
g4
S''
sg6
I01
sg7
I00
sg8
(lp1283
I607
asg10
I01
ssS'nsrexecd'
p1284
(dp1285
g4
S'Legato NetWorker'
p1286
sg6
I00
sg7
I00
sg8
(lp1287
I7937
asg10
I01
ssS'bnet'
p1288
(dp1289
g4
S''
sg6
I01
sg7
I00
sg8
(lp1290
I415
asg10
I01
ssS'dasp'
p1291
(dp1292
g4
S''
sg6
I01
sg7
I00
sg8
(lp1293
I439
asg10
I01
ssS'softcm'
p1294
(dp1295
g4
S'HP SoftBench CM'
p1296
sg6
I01
sg7
I00
sg8
(lp1297
I6110
asg10
I01
ssS'instl_boots'
p1298
(dp1299
g4
S'Installation Bootstrap Proto. Serv.'
p1300
sg6
I01
sg7
I00
sg8
(lp1301
I1067
asg10
I01
ssS'erpc'
p1302
(dp1303
g4
S'Encore Expedited Remote Pro.Call'
p1304
sg6
I01
sg7
I00
sg8
(lp1305
I121
asg10
I01
ssS'rap'
p1306
(dp1307
g4
S'Route Access Protocol'
p1308
sg6
I01
sg7
I00
sg8
(lp1309
I38
aI256
asg10
I01
ssS'vpvd'
p1310
(dp1311
g4
S'Virtual Places Video data'
p1312
sg6
I01
sg7
I00
sg8
(lp1313
I1518
asg10
I01
ssS'omfs'
p1314
(dp1315
g4
S'OpenMosix File System'
p1316
sg6
I00
sg7
I00
sg8
(lp1317
I723
asg10
I01
ssS'vpvc'
p1318
(dp1319
g4
S'Virtual Places Video control'
p1320
sg6
I01
sg7
I00
sg8
(lp1321
I1519
asg10
I01
ssS'entrusttime'
p1322
(dp1323
g4
S''
sg6
I01
sg7
I00
sg8
(lp1324
I309
asg10
I01
ssS'efs'
p1325
(dp1326
g4
S'extended file name server'
p1327
sg6
I00
sg7
I00
sg8
(lp1328
I520
asg10
I01
ssS'imsldoc'
p1329
(dp1330
g4
S''
sg6
I01
sg7
I00
sg8
(lp1331
I2035
asg10
I01
ssS'rpasswd'
p1332
(dp1333
g4
S''
sg6
I00
sg7
I00
sg8
(lp1334
I774
asg10
I01
ssS'linuxconf'
p1335
(dp1336
g4
S'linuxconf'
p1337
sg6
I00
sg7
I00
sg8
(lp1338
I98
asg10
I01
ssS'analogx'
p1339
(dp1340
g4
S'AnalogX HTTP proxy port'
p1341
sg6
I00
sg7
I00
sg8
(lp1342
I6588
asg10
I01
ssS'sdadmind'
p1343
(dp1344
g4
S'ACE/Server services'
p1345
sg6
I00
sg7
I00
sg8
(lp1346
I5550
asg10
I01
ssS'relief'
p1347
(dp1348
g4
S'Relief Consulting'
p1349
sg6
I01
sg7
I00
sg8
(lp1350
I1353
asg10
I01
ssS'fcp'
p1351
(dp1352
g4
S'FirstClass Protocol'
p1353
sg6
I01
sg7
I00
sg8
(lp1354
I510
asg10
I01
ssS'stel'
p1355
(dp1356
g4
S'Secure telnet'
p1357
sg6
I00
sg7
I00
sg8
(lp1358
I10005
asg10
I01
ssS'printer'
p1359
(dp1360
g4
S'spooler (lpd)'
p1361
sg6
I01
sg7
I00
sg8
(lp1362
I515
asg10
I01
ssS'dsETOS'
p1363
(dp1364
g4
S'NEC Corporation'
p1365
sg6
I01
sg7
I00
sg8
(lp1366
I378
asg10
I01
ssS'crystalreports'
p1367
(dp1368
g4
S'Seagate Crystal Reports'
p1369
sg6
I00
sg7
I00
sg8
(lp1370
I6400
asg10
I01
ssS'exec'
p1371
(dp1372
g4
S'BSD rexecd(8)'
p1373
sg6
I00
sg7
I00
sg8
(lp1374
I512
asg10
I01
ssS'track'
p1375
(dp1376
g4
S'software distribution'
p1377
sg6
I00
sg7
I00
sg8
(lp1378
I3462
asg10
I01
ssS'controlit'
p1379
(dp1380
g4
S'Remotely possible'
p1381
sg6
I00
sg7
I00
sg8
(lp1382
I799
asg10
I01
ssS'pcanywheredata'
p1383
(dp1384
g4
S''
sg6
I00
sg7
I00
sg8
(lp1385
I5631
asg10
I01
ssS'who'
p1386
(dp1387
g4
S'BSD rwhod(8)'
p1388
sg6
I01
sg7
I00
sg8
(lp1389
I513
asg10
I00
ssS'tpdu'
p1390
(dp1391
g4
S'Hypercom TPDU'
p1392
sg6
I01
sg7
I00
sg8
(lp1393
I1430
asg10
I01
ssS'gppitnp'
p1394
(dp1395
g4
S'Genesis Point-to-Point Trans Net, or x400 ISO Email'
p1396
sg6
I01
sg7
I00
sg8
(lp1397
I103
asg10
I01
ssS'device'
p1398
(dp1399
g4
S''
sg6
I01
sg7
I00
sg8
(lp1400
I801
asg10
I01
ssS'ibm_wrless_lan'
p1401
(dp1402
g4
S'IBM Wireless LAN'
p1403
sg6
I01
sg7
I00
sg8
(lp1404
I1461
asg10
I01
ssS'orasrv'
p1405
(dp1406
g4
S'oracle or Prospero Directory Service non-priv'
p1407
sg6
I01
sg7
I00
sg8
(lp1408
I1525
asg10
I01
ssS'codasrv'
p1409
(dp1410
g4
S''
sg6
I01
sg7
I00
sg8
(lp1411
I2432
asg10
I01
ssS'urm'
p1412
(dp1413
g4
S'Cray Unified Resource Manager'
p1414
sg6
I01
sg7
I00
sg8
(lp1415
I606
asg10
I01
ssS'datasurfsrvsec'
p1416
(dp1417
g4
S''
sg6
I01
sg7
I00
sg8
(lp1418
I462
asg10
I01
ssS'rkinit'
p1419
(dp1420
g4
S'Kerberos (v4) remote initialization'
p1421
sg6
I01
sg7
I00
sg8
(lp1422
I2108
asg10
I01
ssS'con'
p1423
(dp1424
g4
S''
sg6
I01
sg7
I00
sg8
(lp1425
I759
asg10
I01
ssS'rendezvous'
p1426
(dp1427
g4
S'Rendezvous Zeroconf (used by Apple/iTunes)'
p1428
sg6
I00
sg7
I00
sg8
(lp1429
I3689
asg10
I01
ssS'admeng'
p1430
(dp1431
g4
S'(chili!soft asp)'
p1432
sg6
I00
sg7
I00
sg8
(lp1433
I5102
asg10
I01
ssS'kx'
p1434
(dp1435
g4
S'X over kerberos'
p1436
sg6
I00
sg7
I00
sg8
(lp1437
I2111
asg10
I01
ssS'sgcp'
p1438
(dp1439
g4
S''
sg6
I01
sg7
I00
sg8
(lp1440
I440
asg10
I01
ssS'iafdbase'
p1441
(dp1442
g4
S''
sg6
I01
sg7
I00
sg8
(lp1443
I480
asg10
I00
ssS'cdc'
p1444
(dp1445
g4
S'Certificate Distribution Center'
p1446
sg6
I01
sg7
I00
sg8
(lp1447
I223
asg10
I01
ssS'compaqdiag'
p1448
(dp1449
g4
S'Compaq remote diagnostic/management'
p1450
sg6
I00
sg7
I00
sg8
(lp1451
I2301
aI49400
asg10
I01
ssS'innosys'
p1452
(dp1453
g4
S''
sg6
I01
sg7
I00
sg8
(lp1454
I1412
asg10
I01
ssS'ftps'
p1455
(dp1456
g4
S'ftp protocol, control, over TLS/SSL'
p1457
sg6
I00
sg7
I00
sg8
(lp1458
I990
asg10
I01
ssS'bhfhs'
p1459
(dp1460
g4
S''
sg6
I01
sg7
I00
sg8
(lp1461
I248
asg10
I01
ssS'msql'
p1462
(dp1463
g4
S'mini-sql server'
p1464
sg6
I00
sg7
I00
sg8
(lp1465
I1112
aI4333
asg10
I01
ssS'systat'
p1466
(dp1467
g4
S'Active Users'
p1468
sg6
I01
sg7
I00
sg8
(lp1469
I11
asg10
I01
ssS'dls'
p1470
(dp1471
g4
S'Directory Location Service'
p1472
sg6
I01
sg7
I00
sg8
(lp1473
I197
aI2047
asg10
I01
ssS'ock'
p1474
(dp1475
g4
S''
sg6
I01
sg7
I00
sg8
(lp1476
I1000
asg10
I00
ssS'newacct'
p1477
(dp1478
g4
S'[unauthorized use]'
p1479
sg6
I00
sg7
I00
sg8
(lp1480
I100
asg10
I01
ssS'xribs'
p1481
(dp1482
g4
S''
sg6
I01
sg7
I00
sg8
(lp1483
I2025
asg10
I00
ssS'dict'
p1484
(dp1485
g4
S'Dictionary service (RFC2229)'
p1486
sg6
I00
sg7
I00
sg8
(lp1487
I2628
asg10
I01
ssS'ldap'
p1488
(dp1489
g4
S'Lightweight Directory Access Protocol'
p1490
sg6
I01
sg7
I00
sg8
(lp1491
I389
asg10
I01
ssS'bgmp'
p1492
(dp1493
g4
S''
sg6
I00
sg7
I00
sg8
(lp1494
I264
asg10
I01
ssS'iiop'
p1495
(dp1496
g4
S''
sg6
I01
sg7
I00
sg8
(lp1497
I535
asg10
I01
ssS'hiq'
p1498
(dp1499
g4
S'HiQ License Manager'
p1500
sg6
I01
sg7
I00
sg8
(lp1501
I1410
asg10
I01
ssS'telefinder'
p1502
(dp1503
g4
S''
sg6
I01
sg7
I00
sg8
(lp1504
I1474
asg10
I01
ssS'smux'
p1505
(dp1506
g4
S'SNMP Unix Multiplexer'
p1507
sg6
I01
sg7
I00
sg8
(lp1508
I199
asg10
I01
ssS'dc'
p1509
(dp1510
g4
S'or nfr20 web queries'
p1511
sg6
I00
sg7
I00
sg8
(lp1512
I2001
asg10
I01
ssS'peport'
p1513
(dp1514
g4
S''
sg6
I01
sg7
I00
sg8
(lp1515
I1449
asg10
I01
ssS'zebrasrv'
p1516
(dp1517
g4
S'zebra service'
p1518
sg6
I00
sg7
I00
sg8
(lp1519
I2600
asg10
I01
ssS'pop3'
p1520
(dp1521
g4
S'PostOffice V.3'
p1522
sg6
I01
sg7
I00
sg8
(lp1523
I110
asg10
I01
ssS'pop2'
p1524
(dp1525
g4
S'PostOffice V.2'
p1526
sg6
I01
sg7
I00
sg8
(lp1527
I109
asg10
I01
ssS'wnn6_Cn'
p1528
(dp1529
g4
S'Wnn6 (Chinese input)'
p1530
sg6
I00
sg7
I00
sg8
(lp1531
I22289
asg10
I01
ssS'silc'
p1532
(dp1533
g4
S'Secure Internet Live Conferencing -- http://silcnet.org'
p1534
sg6
I00
sg7
I00
sg8
(lp1535
I706
asg10
I01
ssS'ssh'
p1536
(dp1537
g4
S'Secure Shell Login'
p1538
sg6
I01
sg7
I00
sg8
(lp1539
I22
asg10
I01
ssS'prosharerequest'
p1540
(dp1541
g4
S'proshare conf request'
p1542
sg6
I01
sg7
I00
sg8
(lp1543
I5716
asg10
I01
ssS'xfer'
p1544
(dp1545
g4
S'XFER Utility'
p1546
sg6
I01
sg7
I00
sg8
(lp1547
I82
asg10
I01
ssS'ircs'
p1548
(dp1549
g4
S'irc protocol over TLS/SSL'
p1550
sg6
I00
sg7
I00
sg8
(lp1551
I994
asg10
I01
ssS'qotd'
p1552
(dp1553
g4
S'Quote of the Day'
p1554
sg6
I01
sg7
I00
sg8
(lp1555
I17
asg10
I01
ssS'crs'
p1556
(dp1557
g4
S''
sg6
I01
sg7
I00
sg8
(lp1558
I507
asg10
I01
ssS'irc'
p1559
(dp1560
g4
S'Internet Relay Chat'
p1561
sg6
I01
sg7
I00
sg8
(lp1562
I194
aI6667
aI6668
asg10
I01
ssS'bhevent'
p1563
(dp1564
g4
S''
sg6
I01
sg7
I00
sg8
(lp1565
I357
asg10
I01
ssS'bytex'
p1566
(dp1567
g4
S''
sg6
I01
sg7
I00
sg8
(lp1568
I1375
asg10
I01
ssS'nimreg'
p1569
(dp1570
g4
S''
sg6
I01
sg7
I00
sg8
(lp1571
I1059
asg10
I01
ssS'PowerChutePLUS'
p1572
(dp1573
g4
S''
sg6
I01
sg7
I00
sg8
(lp1574
I6547
aI6548
aI6549
asg10
I01
ssS'dantz'
p1575
(dp1576
g4
S''
sg6
I01
sg7
I00
sg8
(lp1577
I497
asg10
I01
ssS'sdlog'
p1578
(dp1579
g4
S'ACE/Server services'
p1580
sg6
I00
sg7
I00
sg8
(lp1581
I5520
asg10
I01
ssS'supfiledbg'
p1582
(dp1583
g4
S'SUP debugging'
p1584
sg6
I00
sg7
I00
sg8
(lp1585
I1127
asg10
I01
ssS'rfe'
p1586
(dp1587
g4
S'Radio Free Ethernet'
p1588
sg6
I01
sg7
I00
sg8
(lp1589
I5002
asg10
I01
ssS'sonar'
p1590
(dp1591
g4
S''
sg6
I01
sg7
I00
sg8
(lp1592
I572
asg10
I01
ssS'shiva_confsrvr'
p1593
(dp1594
g4
S''
sg6
I01
sg7
I00
sg8
(lp1595
I1651
asg10
I01
ssS'amanda'
p1596
(dp1597
g4
S'Amanda Backup Util'
p1598
sg6
I01
sg7
I00
sg8
(lp1599
I10080
asg10
I00
ssS'whoami'
p1600
(dp1601
g4
S''
sg6
I01
sg7
I00
sg8
(lp1602
I565
asg10
I01
ssS'resvc'
p1603
(dp1604
g4
S'The Microsoft Exchange 2000 Server Routing Service          '
p1605
sg6
I00
sg7
I00
sg8
(lp1606
I691
asg10
I01
ssS'ocs_cmu'
p1607
(dp1608
g4
S''
sg6
I01
sg7
I00
sg8
(lp1609
I428
asg10
I01
ssS'set'
p1610
(dp1611
g4
S'secure electronic transaction'
p1612
sg6
I01
sg7
I00
sg8
(lp1613
I257
asg10
I00
ssS'concert'
p1614
(dp1615
g4
S''
sg6
I01
sg7
I00
sg8
(lp1616
I786
asg10
I01
ssS'rmt'
p1617
(dp1618
g4
S'Remote MT Protocol'
p1619
sg6
I01
sg7
I00
sg8
(lp1620
I411
asg10
I01
ssS'msrpc'
p1621
(dp1622
g4
S'Microsoft RPC services'
p1623
sg6
I01
sg7
I00
sg8
(lp1624
I135
asg10
I01
ssS'atls'
p1625
(dp1626
g4
S'Access Technology License Server'
p1627
sg6
I01
sg7
I00
sg8
(lp1628
I216
asg10
I01
ssS'auditd'
p1629
(dp1630
g4
S'Digital Audit Daemon'
p1631
sg6
I01
sg7
I00
sg8
(lp1632
I48
asg10
I01
ssS'edonkey'
p1633
(dp1634
g4
S'eDonkey file sharing (Donkey)'
p1635
sg6
I01
sg7
I00
sg8
(lp1636
I4662
aI4666
asg10
I01
ssS'molly'
p1637
(dp1638
g4
S'EPI Software Systems'
p1639
sg6
I01
sg7
I00
sg8
(lp1640
I1374
asg10
I01
ssS'radius'
p1641
(dp1642
g4
S'radius authentication'
p1643
sg6
I01
sg7
I00
sg8
(lp1644
I1645
aI1812
asg10
I00
ssS'rtmp'
p1645
(dp1646
g4
S'Macromedia FlasComm Server'
p1647
sg6
I00
sg7
I00
sg8
(lp1648
I1935
asg10
I01
ssS'dpsi'
p1649
(dp1650
g4
S''
sg6
I01
sg7
I00
sg8
(lp1651
I315
asg10
I01
ssS'opsec_ufp'
p1652
(dp1653
g4
S'Check Point OPSEC'
p1654
sg6
I00
sg7
I00
sg8
(lp1655
I18182
asg10
I01
ssS'ingreslock'
p1656
(dp1657
g4
S'ingres'
p1658
sg6
I01
sg7
I00
sg8
(lp1659
I1524
asg10
I01
ssS'bhmds'
p1660
(dp1661
g4
S''
sg6
I01
sg7
I00
sg8
(lp1662
I310
asg10
I01
ssS'imsp'
p1663
(dp1664
g4
S'Interactive Mail Support Protocol'
p1665
sg6
I01
sg7
I00
sg8
(lp1666
I406
asg10
I01
ssS'xinuexpansion1'
p1667
(dp1668
g4
S''
sg6
I01
sg7
I00
sg8
(lp1669
I2021
asg10
I00
ssS'xinuexpansion3'
p1670
(dp1671
g4
S''
sg6
I01
sg7
I00
sg8
(lp1672
I2023
asg10
I01
ssS'xinuexpansion2'
p1673
(dp1674
g4
S''
sg6
I01
sg7
I00
sg8
(lp1675
I2022
asg10
I00
ssS'xinuexpansion4'
p1676
(dp1677
g4
S''
sg6
I01
sg7
I00
sg8
(lp1678
I2024
asg10
I01
ssS'comscm'
p1679
(dp1680
g4
S''
sg6
I01
sg7
I00
sg8
(lp1681
I437
asg10
I01
ssS'tabula'
p1682
(dp1683
g4
S''
sg6
I01
sg7
I00
sg8
(lp1684
I1437
asg10
I01
ssS'finger'
p1685
(dp1686
g4
S''
sg6
I01
sg7
I00
sg8
(lp1687
I79
asg10
I01
ssS'ripng'
p1688
(dp1689
g4
S''
sg6
I01
sg7
I00
sg8
(lp1690
I521
asg10
I01
ssS'remotefs'
p1691
(dp1692
g4
S'rfs, rfs_server, Brunhoff remote filesystem'
p1693
sg6
I01
sg7
I00
sg8
(lp1694
I556
asg10
I01
ssS'nntp'
p1695
(dp1696
g4
S'Network News Transfer Protocol'
p1697
sg6
I01
sg7
I00
sg8
(lp1698
I119
asg10
I01
ssS'fodms'
p1699
(dp1700
g4
S'FODMS FLIP'
p1701
sg6
I01
sg7
I00
sg8
(lp1702
I7200
asg10
I01
ssS'pcnfs'
p1703
(dp1704
g4
S'PC-NFS DOS Authentication'
p1705
sg6
I01
sg7
I00
sg8
(lp1706
I640
asg10
I00
ssS'kademlia'
p1707
(dp1708
g4
S'Kademlia P2P (mlnet)'
p1709
sg6
I01
sg7
I00
sg8
(lp1710
I3246
asg10
I00
ssS'appleqtcsrvr'
p1711
(dp1712
g4
S''
sg6
I01
sg7
I00
sg8
(lp1713
I545
asg10
I00
ssS'padl2sim'
p1714
(dp1715
g4
S''
sg6
I01
sg7
I00
sg8
(lp1716
I5236
asg10
I01
ssS'snpp'
p1717
(dp1718
g4
S'Simple Network Paging Protocol'
p1719
sg6
I01
sg7
I00
sg8
(lp1720
I444
asg10
I01
ssS'lupa'
p1721
(dp1722
g4
S''
sg6
I01
sg7
I00
sg8
(lp1723
I1212
asg10
I01
ssS'tenebris_nts'
p1724
(dp1725
g4
S'Tenebris Network Trace Service'
p1726
sg6
I01
sg7
I00
sg8
(lp1727
I359
asg10
I01
ssS'mailbox'
p1728
(dp1729
g4
S''
sg6
I00
sg7
I00
sg8
(lp1730
I2004
asg10
I01
ssS'xinupageserver'
p1731
(dp1732
g4
S''
sg6
I01
sg7
I00
sg8
(lp1733
I2020
asg10
I01
ssS'remoteanything'
p1734
(dp1735
g4
S'neoworx remote-anything slave daemon'
p1736
sg6
I01
sg7
I00
sg8
(lp1737
I3996
aI3997
aI3998
aI3999
aI4000
asg10
I01
ssS'news'
p1738
(dp1739
g4
S'NewS window system'
p1740
sg6
I01
sg7
I00
sg8
(lp1741
I144
aI2009
asg10
I01
ssS'ciscopop'
p1742
(dp1743
g4
S'Cisco Postoffice Protocol for Cisco Secure IDS'
p1744
sg6
I01
sg7
I00
sg8
(lp1745
I45000
asg10
I00
ssS'keyserver'
p1746
(dp1747
g4
S''
sg6
I01
sg7
I00
sg8
(lp1748
I584
asg10
I01
ssS'rtsserv'
p1749
(dp1750
g4
S'Resource Tracking system server'
p1751
sg6
I01
sg7
I00
sg8
(lp1752
I2500
asg10
I01
ssS'diagmond'
p1753
(dp1754
g4
S''
sg6
I01
sg7
I00
sg8
(lp1755
I1508
asg10
I01
ssS'aurp'
p1756
(dp1757
g4
S'Appletalk Update-Based Routing Pro.'
p1758
sg6
I01
sg7
I00
sg8
(lp1759
I387
asg10
I01
ssS'VeritasNetbackup'
p1760
(dp1761
g4
S'vmd           server'
p1762
sg6
I00
sg7
I00
sg8
(lp1763
I13701
aI13702
aI13705
aI13706
aI13708
aI13709
aI13710
aI13711
aI13712
aI13713
aI13714
aI13715
aI13716
aI13717
aI13718
aI13720
aI13721
aI13722
aI13782
aI13783
asg10
I01
ssS'qft'
p1764
(dp1765
g4
S'Queued File Transport'
p1766
sg6
I01
sg7
I00
sg8
(lp1767
I189
asg10
I01
ssS'nnsp'
p1768
(dp1769
g4
S'Usenet, Network News Transfer'
p1770
sg6
I01
sg7
I00
sg8
(lp1771
I433
asg10
I01
ssS'decbsrv'
p1772
(dp1773
g4
S''
sg6
I01
sg7
I00
sg8
(lp1774
I579
asg10
I01
ssS'utmpsd'
p1775
(dp1776
g4
S''
sg6
I01
sg7
I00
sg8
(lp1777
I430
asg10
I01
ssS'sbook'
p1778
(dp1779
g4
S'Registration Network Protocol'
p1780
sg6
I01
sg7
I00
sg8
(lp1781
I1349
asg10
I01
ssS'msdtc'
p1782
(dp1783
g4
S'MS distributed transaction coordinator'
p1784
sg6
I00
sg7
I00
sg8
(lp1785
I3372
asg10
I01
ssS'aspeclmd'
p1786
(dp1787
g4
S''
sg6
I01
sg7
I00
sg8
(lp1788
I1544
asg10
I01
ssS'whosockami'
p1789
(dp1790
g4
S''
sg6
I01
sg7
I00
sg8
(lp1791
I2009
aI2019
asg10
I01
ssS'nameserver'
p1792
(dp1793
g4
S'Host Name Server'
p1794
sg6
I01
sg7
I00
sg8
(lp1795
I42
asg10
I01
ssS'powerburst'
p1796
(dp1797
g4
S'Air Soft Power Burst'
p1798
sg6
I01
sg7
I00
sg8
(lp1799
I485
asg10
I01
ssS'fasttrack'
p1800
(dp1801
g4
S'Kazaa File Sharing'
p1802
sg6
I01
sg7
I00
sg8
(lp1803
I1214
asg10
I01
ssS'instl_bootc'
p1804
(dp1805
g4
S'Installation Bootstrap Proto. Cli.'
p1806
sg6
I01
sg7
I00
sg8
(lp1807
I1068
asg10
I01
ssS'gopher'
p1808
(dp1809
g4
S''
sg6
I01
sg7
I00
sg8
(lp1810
I70
asg10
I01
ssS'xvttp'
p1811
(dp1812
g4
S''
sg6
I01
sg7
I00
sg8
(lp1813
I508
asg10
I01
ssS'unicall'
p1814
(dp1815
g4
S''
sg6
I01
sg7
I00
sg8
(lp1816
I4343
asg10
I01
ssS'chromagrafx'
p1817
(dp1818
g4
S''
sg6
I01
sg7
I00
sg8
(lp1819
I1373
asg10
I01
ssS'gwha'
p1820
(dp1821
g4
S'GW Hannaway Network License Manager'
p1822
sg6
I01
sg7
I00
sg8
(lp1823
I1383
asg10
I01
ssS'conference'
p1824
(dp1825
g4
S'chat'
p1826
sg6
I01
sg7
I00
sg8
(lp1827
I531
asg10
I01
ssS'pipe_server'
p1828
(dp1829
g4
S'Also used by NFR'
p1830
sg6
I01
sg7
I00
sg8
(lp1831
I2010
asg10
I00
ssS'afpovertcp'
p1832
(dp1833
g4
S'AFP over TCP'
p1834
sg6
I01
sg7
I00
sg8
(lp1835
I548
asg10
I01
ssS'equationbuilder'
p1836
(dp1837
g4
S'Digital Tool Works (MIT)'
p1838
sg6
I01
sg7
I00
sg8
(lp1839
I1351
asg10
I01
ssS'filemaker'
p1840
(dp1841
g4
S'Filemaker Server - http://www.filemaker.com/ti/104289.html'
p1842
sg6
I01
sg7
I00
sg8
(lp1843
I5003
asg10
I01
ssS'laplink'
p1844
(dp1845
g4
S''
sg6
I01
sg7
I00
sg8
(lp1846
I1547
asg10
I01
ssS'nessusd'
p1847
(dp1848
g4
S'Nessus Security Scanner (www.nessus.org) Daemon or chili!soft asp'
p1849
sg6
I00
sg7
I00
sg8
(lp1850
I3001
asg10
I01
ssS'ph'
p1851
(dp1852
g4
S''
sg6
I01
sg7
I00
sg8
(lp1853
I481
asg10
I00
ssS'waste'
p1854
(dp1855
g4
S'Nullsoft WASTE encrypted P2P app'
p1856
sg6
I00
sg7
I00
sg8
(lp1857
I1337
asg10
I01
ssS'Elite'
p1858
(dp1859
g4
S'Sometimes interesting stuff can be found here'
p1860
sg6
I00
sg7
I00
sg8
(lp1861
I31337
asg10
I01
ssS'citadel'
p1862
(dp1863
g4
S''
sg6
I01
sg7
I00
sg8
(lp1864
I504
asg10
I01
ssS'ftsrv'
p1865
(dp1866
g4
S''
sg6
I01
sg7
I00
sg8
(lp1867
I1359
asg10
I01
ssS'avian'
p1868
(dp1869
g4
S''
sg6
I01
sg7
I00
sg8
(lp1870
I486
asg10
I00
ssS'silverplatter'
p1871
(dp1872
g4
S''
sg6
I01
sg7
I00
sg8
(lp1873
I416
asg10
I01
ssS'pcanywherestat'
p1874
(dp1875
g4
S''
sg6
I01
sg7
I00
sg8
(lp1876
I5632
asg10
I01
ssS'cypress'
p1877
(dp1878
g4
S''
sg6
I00
sg7
I00
sg8
(lp1879
I2015
asg10
I01
ssS'kerberos'
p1880
(dp1881
g4
S'kdc Kerberos (v4)'
p1882
sg6
I01
sg7
I00
sg8
(lp1883
I750
asg10
I01
ssS'telnet'
p1884
(dp1885
g4
S''
sg6
I01
sg7
I00
sg8
(lp1886
I23
asg10
I01
ssS'hexen2'
p1887
(dp1888
g4
S'Hexen 2 game server'
p1889
sg6
I01
sg7
I00
sg8
(lp1890
I26900
asg10
I00
ssS'9pfs'
p1891
(dp1892
g4
S'plan 9 file service'
p1893
sg6
I01
sg7
I00
sg8
(lp1894
I564
asg10
I01
ssS'ripngd'
p1895
(dp1896
g4
S'RIPngd vty'
p1897
sg6
I00
sg7
I00
sg8
(lp1898
I2603
asg10
I01
ssS'graphics'
p1899
(dp1900
g4
S''
sg6
I01
sg7
I00
sg8
(lp1901
I41
asg10
I01
ssS'lanserver'
p1902
(dp1903
g4
S''
sg6
I01
sg7
I00
sg8
(lp1904
I637
asg10
I01
ssS'sdnskmp'
p1905
(dp1906
g4
S''
sg6
I01
sg7
I00
sg8
(lp1907
I558
asg10
I01
ssS'imap'
p1908
(dp1909
g4
S'Interim Mail Access Protocol v2'
p1910
sg6
I01
sg7
I00
sg8
(lp1911
I143
asg10
I01
ssS'rimsl'
p1912
(dp1913
g4
S''
sg6
I01
sg7
I00
sg8
(lp1914
I2044
asg10
I01
ssS'commerce'
p1915
(dp1916
g4
S''
sg6
I01
sg7
I00
sg8
(lp1917
I542
asg10
I01
ssS'pwdgen'
p1918
(dp1919
g4
S'Password Generator Protocol'
p1920
sg6
I01
sg7
I00
sg8
(lp1921
I129
asg10
I01
ssS'unify'
p1922
(dp1923
g4
S''
sg6
I01
sg7
I00
sg8
(lp1924
I181
asg10
I01
ssS'pksd'
p1925
(dp1926
g4
S'PGP Public Key Server'
p1927
sg6
I00
sg7
I00
sg8
(lp1928
I11371
asg10
I01
ssS'arcserve'
p1929
(dp1930
g4
S'ARCserve agent'
p1931
sg6
I00
sg7
I00
sg8
(lp1932
I6050
asg10
I01
ssS'mount'
p1933
(dp1934
g4
S'NFS Mount Service'
p1935
sg6
I01
sg7
I00
sg8
(lp1936
I635
asg10
I00
ssS'sdserv'
p1937
(dp1938
g4
S'ACE/Server services'
p1939
sg6
I00
sg7
I00
sg8
(lp1940
I5530
asg10
I01
ssS'uis'
p1941
(dp1942
g4
S''
sg6
I01
sg7
I00
sg8
(lp1943
I390
asg10
I01
ssS'gnutella'
p1944
(dp1945
g4
S'Gnutella file sharing protocol'
p1946
sg6
I01
sg7
I00
sg8
(lp1947
I6346
asg10
I01
ssS'btx'
p1948
(dp1949
g4
S"xcept4 (Interacts with German Telekom's CEPT videotext service)"
p1950
sg6
I00
sg7
I00
sg8
(lp1951
I20005
asg10
I01
ssS'nextstep'
p1952
(dp1953
g4
S'NextStep Window Server'
p1954
sg6
I01
sg7
I00
sg8
(lp1955
I178
asg10
I01
ssS'cfengine'
p1956
(dp1957
g4
S''
sg6
I01
sg7
I00
sg8
(lp1958
I5308
asg10
I01
ssS'login'
p1959
(dp1960
g4
S'BSD rlogind(8)'
p1961
sg6
I00
sg7
I00
sg8
(lp1962
I513
asg10
I01
ssS'clearcase'
p1963
(dp1964
g4
S''
sg6
I01
sg7
I00
sg8
(lp1965
I371
asg10
I01
ssS'spc'
p1966
(dp1967
g4
S'HP SoftBench Sub-Process Control'
p1968
sg6
I01
sg7
I00
sg8
(lp1969
I6111
asg10
I01
ssS'cvc'
p1970
(dp1971
g4
S''
sg6
I01
sg7
I00
sg8
(lp1972
I1495
asg10
I01
ssS'flexlm'
p1973
(dp1974
g4
S'Flexible License Manager'
p1975
sg6
I01
sg7
I00
sg8
(lp1976
I744
asg10
I01
ssS'unitary'
p1977
(dp1978
g4
S'Unisys Unitary Login'
p1979
sg6
I01
sg7
I00
sg8
(lp1980
I126
asg10
I01
ssS'localinfosrvr'
p1981
(dp1982
g4
S''
sg6
I01
sg7
I00
sg8
(lp1983
I1487
asg10
I01
ssS'ripd'
p1984
(dp1985
g4
S'RIPd vty'
p1986
sg6
I00
sg7
I00
sg8
(lp1987
I2602
asg10
I01
ssS'gnutella2'
p1988
(dp1989
g4
S'Gnutella2 file sharing protocol'
p1990
sg6
I01
sg7
I00
sg8
(lp1991
I6347
asg10
I01
ssS'xlog'
p1992
(dp1993
g4
S''
sg6
I01
sg7
I00
sg8
(lp1994
I482
asg10
I00
ssS'Trinoo_Master'
p1995
(dp1996
g4
S'Trinoo distributed attack tool Master server control port'
p1997
sg6
I00
sg7
I00
sg8
(lp1998
I27665
asg10
I01
ssS'ris'
p1999
(dp2000
g4
S'Intergraph'
p2001
sg6
I01
sg7
I00
sg8
(lp2002
I180
asg10
I01
ssS'shivahose'
p2003
(dp2004
g4
S'Shiva Hose'
p2005
sg6
I00
sg7
I00
sg8
(lp2006
I1549
asg10
I01
ssS'abbaccuray'
p2007
(dp2008
g4
S''
sg6
I01
sg7
I00
sg8
(lp2009
I1546
asg10
I01
ssS'conf'
p2010
(dp2011
g4
S''
sg6
I00
sg7
I00
sg8
(lp2012
I2008
asg10
I01
ssS'supfilesrv'
p2013
(dp2014
g4
S'SUP server'
p2015
sg6
I00
sg7
I00
sg8
(lp2016
I871
asg10
I01
ssS'rtip'
p2017
(dp2018
g4
S''
sg6
I01
sg7
I00
sg8
(lp2019
I771
asg10
I01
ssS'rmonitor_secure'
p2020
(dp2021
g4
S''
sg6
I01
sg7
I00
sg8
(lp2022
I5145
asg10
I01
ssS'arcisdms'
p2023
(dp2024
g4
S''
sg6
I01
sg7
I00
sg8
(lp2025
I262
asg10
I01
ssS'zeroconf'
p2026
(dp2027
g4
S'Mac OS X Bonjour/Zeroconf port '
p2028
sg6
I01
sg7
I00
sg8
(lp2029
I5353
asg10
I00
ssS'tserver'
p2030
(dp2031
g4
S''
sg6
I01
sg7
I00
sg8
(lp2032
I450
asg10
I01
ssS'BackOrifice'
p2033
(dp2034
g4
S'cDc Back Orifice remote admin tool'
p2035
sg6
I01
sg7
I00
sg8
(lp2036
I31337
asg10
I00
ssS'ncld'
p2037
(dp2038
g4
S''
sg6
I01
sg7
I00
sg8
(lp2039
I405
asg10
I01
ssS'gacp'
p2040
(dp2041
g4
S'Gateway Access Control Protocol'
p2042
sg6
I00
sg7
I00
sg8
(lp2043
I190
asg10
I01
ssS'hostname'
p2044
(dp2045
g4
S'hostnames NIC Host Name Server'
p2046
sg6
I01
sg7
I00
sg8
(lp2047
I101
asg10
I01
ssS'ariel3'
p2048
(dp2049
g4
S''
sg6
I01
sg7
I00
sg8
(lp2050
I422
asg10
I01
ssS'qaz'
p2051
(dp2052
g4
S'Quaz trojan worm'
p2053
sg6
I00
sg7
I00
sg8
(lp2054
I7597
asg10
I01
ssS'netvenuechat'
p2055
(dp2056
g4
S'Nortel NetVenue Notification, Chat, Intercom'
p2057
sg6
I00
sg7
I00
sg8
(lp2058
I1023
asg10
I01
ssS'dayna'
p2059
(dp2060
g4
S''
sg6
I01
sg7
I00
sg8
(lp2061
I244
asg10
I01
ssS'mciautoreg'
p2062
(dp2063
g4
S''
sg6
I01
sg7
I00
sg8
(lp2064
I1528
asg10
I01
ssS'pacerforum'
p2065
(dp2066
g4
S''
sg6
I01
sg7
I00
sg8
(lp2067
I1480
asg10
I01
ssS'http'
p2068
(dp2069
g4
S'World Wide Web HTTP'
p2070
sg6
I01
sg7
I00
sg8
(lp2071
I80
asg10
I01
ssS'lgtomapper'
p2072
(dp2073
g4
S'Legato portmapper'
p2074
sg6
I00
sg7
I00
sg8
(lp2075
I7938
asg10
I01
ssS'nim'
p2076
(dp2077
g4
S''
sg6
I01
sg7
I00
sg8
(lp2078
I1058
asg10
I01
ssS'kis'
p2079
(dp2080
g4
S'KIS Protocol'
p2081
sg6
I01
sg7
I00
sg8
(lp2082
I186
asg10
I01
ssS'netsaint'
p2083
(dp2084
g4
S'Netsaint status daemon'
p2085
sg6
I00
sg7
I00
sg8
(lp2086
I1040
asg10
I01
ssS'ekshell'
p2087
(dp2088
g4
S'Kerberos encrypted remote shell -kfall'
p2089
sg6
I01
sg7
I00
sg8
(lp2090
I545
aI2106
asg10
I01
ssS'infoman'
p2091
(dp2092
g4
S'IBM Information Management'
p2093
sg6
I01
sg7
I00
sg8
(lp2094
I1451
asg10
I01
ssS'sdfunc'
p2095
(dp2096
g4
S''
sg6
I01
sg7
I00
sg8
(lp2097
I2046
asg10
I01
ssS'distccd'
p2098
(dp2099
g4
S'Distributed compiler daemon'
p2100
sg6
I00
sg7
I00
sg8
(lp2101
I3632
asg10
I01
ssS'rds2'
p2102
(dp2103
g4
S''
sg6
I01
sg7
I00
sg8
(lp2104
I1541
asg10
I01
ssS'nip'
p2105
(dp2106
g4
S'Amiga Envoy Network Inquiry Proto'
p2107
sg6
I01
sg7
I00
sg8
(lp2108
I376
asg10
I01
ssS'flexlm10'
p2109
(dp2110
g4
S'FlexLM license manager additional ports'
p2111
sg6
I00
sg7
I00
sg8
(lp2112
I27010
asg10
I01
ssS'ansanotify'
p2113
(dp2114
g4
S'ANSA REX Notify'
p2115
sg6
I01
sg7
I00
sg8
(lp2116
I116
asg10
I01
ssS'tftp'
p2117
(dp2118
g4
S'Trivial File Transfer'
p2119
sg6
I01
sg7
I00
sg8
(lp2120
I69
asg10
I01
ssS'rfa'
p2121
(dp2122
g4
S'remote file access server'
p2123
sg6
I01
sg7
I00
sg8
(lp2124
I4672
asg10
I01
ssS'audit'
p2125
(dp2126
g4
S'Unisys Audit SITP'
p2127
sg6
I01
sg7
I00
sg8
(lp2128
I182
asg10
I01
ssS'supdup'
p2129
(dp2130
g4
S'BSD supdupd(8)'
p2131
sg6
I01
sg7
I00
sg8
(lp2132
I95
asg10
I01
ssS'invokator'
p2133
(dp2134
g4
S''
sg6
I00
sg7
I00
sg8
(lp2135
I2006
asg10
I01
ssS'cybercash'
p2136
(dp2137
g4
S''
sg6
I01
sg7
I00
sg8
(lp2138
I551
asg10
I01
ssS'chargen'
p2139
(dp2140
g4
S'ttytst source Character Generator'
p2141
sg6
I01
sg7
I00
sg8
(lp2142
I19
asg10
I01
ssS'ccmail'
p2143
(dp2144
g4
S'cc:mail/lotus'
p2145
sg6
I01
sg7
I00
sg8
(lp2146
I3264
asg10
I01
ssS'genie'
p2147
(dp2148
g4
S'Genie Protocol'
p2149
sg6
I01
sg7
I00
sg8
(lp2150
I402
asg10
I01
ssS'nced'
p2151
(dp2152
g4
S''
sg6
I01
sg7
I00
sg8
(lp2153
I404
asg10
I01
ssS'tcpmux'
p2154
(dp2155
g4
S'TCP Port Service Multiplexer [rfc-1078]'
p2156
sg6
I01
sg7
I00
sg8
(lp2157
I1
asg10
I01
ssS'kpop'
p2158
(dp2159
g4
S'Pop with Kerberos'
p2160
sg6
I00
sg7
I00
sg8
(lp2161
I1109
asg10
I01
ssS'mnotes'
p2162
(dp2163
g4
S'CommonTime Mnotes PDA Synchronization'
p2164
sg6
I00
sg7
I00
sg8
(lp2165
I603
asg10
I01
ssS'knetd'
p2166
(dp2167
g4
S''
sg6
I00
sg7
I00
sg8
(lp2168
I2053
asg10
I01
ssS'sdreport'
p2169
(dp2170
g4
S'ACE/Server services'
p2171
sg6
I00
sg7
I00
sg8
(lp2172
I5540
asg10
I01
ssS'spamassassin'
p2173
(dp2174
g4
S'Apache SpamAssassin spamd'
p2175
sg6
I00
sg7
I00
sg8
(lp2176
I783
asg10
I01
ssS'multiplex'
p2177
(dp2178
g4
S'Network Innovations Multiplex'
p2179
sg6
I01
sg7
I00
sg8
(lp2180
I171
asg10
I01
ssS'mysql'
p2181
(dp2182
g4
S'mySQL'
p2183
sg6
I00
sg7
I00
sg8
(lp2184
I3306
asg10
I01
ssS'applix'
p2185
(dp2186
g4
S'Applix ac'
p2187
sg6
I01
sg7
I00
sg8
(lp2188
I999
asg10
I00
ssS'alpes'
p2189
(dp2190
g4
S''
sg6
I01
sg7
I00
sg8
(lp2191
I463
asg10
I01
ssS'streettalk'
p2192
(dp2193
g4
S''
sg6
I00
sg7
I00
sg8
(lp2194
I566
asg10
I01
ssS'snmp'
p2195
(dp2196
g4
S''
sg6
I01
sg7
I00
sg8
(lp2197
I161
asg10
I01
ssS'bigbrother'
p2198
(dp2199
g4
S'Big Brother monitoring server - www.bb4.com'
p2200
sg6
I00
sg7
I00
sg8
(lp2201
I1984
asg10
I01
ssS'cfingerd'
p2202
(dp2203
g4
S'GNU finger'
p2204
sg6
I00
sg7
I00
sg8
(lp2205
I2003
asg10
I01
ssS'prosharevideo'
p2206
(dp2207
g4
S'proshare conf video'
p2208
sg6
I01
sg7
I00
sg8
(lp2209
I5714
asg10
I01
ssS'ipdd'
p2210
(dp2211
g4
S''
sg6
I01
sg7
I00
sg8
(lp2212
I578
asg10
I01
ssS'smpte'
p2213
(dp2214
g4
S''
sg6
I01
sg7
I00
sg8
(lp2215
I420
asg10
I01
ssS'wms'
p2216
(dp2217
g4
S'Windows media service'
p2218
sg6
I00
sg7
I00
sg8
(lp2219
I1755
asg10
I01
ssS'dlsrpn'
p2220
(dp2221
g4
S'Data Link Switch Read Port Number'
p2222
sg6
I01
sg7
I00
sg8
(lp2223
I2065
asg10
I01
ssS'pawserv'
p2224
(dp2225
g4
S'Perf Analysis Workbench'
p2226
sg6
I01
sg7
I00
sg8
(lp2227
I345
asg10
I01
ssS'polipo'
p2228
(dp2229
g4
S'Polipo open source web proxy cache'
p2230
sg6
I00
sg7
I00
sg8
(lp2231
I8123
asg10
I01
ssS'editbench'
p2232
(dp2233
g4
S'Registration Network Protocol'
p2234
sg6
I01
sg7
I00
sg8
(lp2235
I1350
asg10
I01
ssS'openmanage'
p2236
(dp2237
g4
S'Dell OpenManage'
p2238
sg6
I00
sg7
I00
sg8
(lp2239
I7273
asg10
I01
ssS'bo2k'
p2240
(dp2241
g4
S'Back Orifice 2K BoPeep mouse/keyboard input'
p2242
sg6
I01
sg7
I00
sg8
(lp2243
I14141
aI15151
aI54320
aI54321
asg10
I01
ssS'blackjack'
p2244
(dp2245
g4
S'network blackjack'
p2246
sg6
I01
sg7
I00
sg8
(lp2247
I1025
asg10
I00
ssS'dbase'
p2248
(dp2249
g4
S'dBASE Unix'
p2250
sg6
I01
sg7
I00
sg8
(lp2251
I217
asg10
I01
ssS'snare'
p2252
(dp2253
g4
S''
sg6
I01
sg7
I00
sg8
(lp2254
I509
asg10
I01
ssS'submission'
p2255
(dp2256
g4
S''
sg6
I01
sg7
I00
sg8
(lp2257
I587
asg10
I01
ssS'rtsclient'
p2258
(dp2259
g4
S'Resource Tracking system client'
p2260
sg6
I01
sg7
I00
sg8
(lp2261
I2501
asg10
I01
ssS'intrinsa'
p2262
(dp2263
g4
S''
sg6
I01
sg7
I00
sg8
(lp2264
I503
asg10
I01
ssS'mftp'
p2265
(dp2266
g4
S''
sg6
I01
sg7
I00
sg8
(lp2267
I349
asg10
I01
ssS'opsec_cvp'
p2268
(dp2269
g4
S'Check Point OPSEC'
p2270
sg6
I00
sg7
I00
sg8
(lp2271
I18181
asg10
I01
ssS'shrinkwrap'
p2272
(dp2273
g4
S''
sg6
I01
sg7
I00
sg8
(lp2274
I358
asg10
I01
ssS'NetBus'
p2275
(dp2276
g4
S'NetBus backdoor trojan or Trend Micro Office Scan'
p2277
sg6
I00
sg7
I00
sg8
(lp2278
I12345
aI12346
asg10
I01
ssS'ocs_amu'
p2279
(dp2280
g4
S''
sg6
I01
sg7
I00
sg8
(lp2281
I429
asg10
I01
ssS'kdm'
p2282
(dp2283
g4
S'K Display Manager (KDE version of xdm)'
p2284
sg6
I00
sg7
I00
sg8
(lp2285
I1024
asg10
I01
ssS'dberegister'
p2286
(dp2287
g4
S''
sg6
I01
sg7
I00
sg8
(lp2288
I1479
asg10
I01
ssS'elcsd'
p2289
(dp2290
g4
S'errlog copy/server daemon'
p2291
sg6
I01
sg7
I00
sg8
(lp2292
I704
asg10
I01
ssS'acmsoda'
p2293
(dp2294
g4
S''
sg6
I01
sg7
I00
sg8
(lp2295
I6969
asg10
I01
ssS'biff'
p2296
(dp2297
g4
S'comsat'
p2298
sg6
I01
sg7
I00
sg8
(lp2299
I512
asg10
I00
ssS'acas'
p2300
(dp2301
g4
S'ACA Services'
p2302
sg6
I01
sg7
I00
sg8
(lp2303
I62
asg10
I01
ssS'decauth'
p2304
(dp2305
g4
S''
sg6
I01
sg7
I00
sg8
(lp2306
I316
asg10
I01
ssS'acap'
p2307
(dp2308
g4
S'ACAP server of Communigate (www.stalker.com)'
p2309
sg6
I00
sg7
I00
sg8
(lp2310
I674
asg10
I01
ssS'vnc'
p2311
(dp2312
g4
S'Virtual Network Computer display 0'
p2313
sg6
I00
sg7
I00
sg8
(lp2314
I5900
asg10
I01
ssS'rightbrain'
p2315
(dp2316
g4
S'RightBrain Software'
p2317
sg6
I01
sg7
I00
sg8
(lp2318
I1354
asg10
I01
ssS'subseven'
p2319
(dp2320
g4
S'Subseven trojan'
p2321
sg6
I00
sg7
I00
sg8
(lp2322
I16959
aI27374
asg10
I01
ssS'extensisportfolio'
p2323
(dp2324
g4
S'Portfolio Server by Extensis Product Group'
p2325
sg6
I00
sg7
I00
sg8
(lp2326
I2903
asg10
I01
ssS'rsync'
p2327
(dp2328
g4
S'Rsync server ( http://rsync.samba.org )'
p2329
sg6
I00
sg7
I00
sg8
(lp2330
I873
asg10
I01
ssS'icb'
p2331
(dp2332
g4
S"Internet Citizen's Band"
p2333
sg6
I00
sg7
I00
sg8
(lp2334
I7326
asg10
I01
ssS'ssserver'
p2335
(dp2336
g4
S'Sun StorEdge Configuration Service'
p2337
sg6
I00
sg7
I00
sg8
(lp2338
I1270
asg10
I01
ssS'daytime'
p2339
(dp2340
g4
S''
sg6
I01
sg7
I00
sg8
(lp2341
I13
asg10
I01
ssS'netwall'
p2342
(dp2343
g4
S'for emergency broadcasts'
p2344
sg6
I01
sg7
I00
sg8
(lp2345
I533
asg10
I01
ssS'screencast'
p2346
(dp2347
g4
S''
sg6
I01
sg7
I00
sg8
(lp2348
I1368
asg10
I01
ssS'novastorbakcup'
p2349
(dp2350
g4
S'novastor backup'
p2351
sg6
I01
sg7
I00
sg8
(lp2352
I308
asg10
I01
ssS'maitrd'
p2353
(dp2354
g4
S''
sg6
I01
sg7
I00
sg8
(lp2355
I997
asg10
I01
ssS'blackboard'
p2356
(dp2357
g4
S''
sg6
I01
sg7
I00
sg8
(lp2358
I2032
asg10
I01
ssS'nfs'
p2359
(dp2360
g4
S'networked file system'
p2361
sg6
I01
sg7
I00
sg8
(lp2362
I2049
asg10
I01
ssS'icq'
p2363
(dp2364
g4
S'AOL ICQ instant messaging clent-server communication'
p2365
sg6
I01
sg7
I00
sg8
(lp2366
I4000
asg10
I00
ssS'rpc2portmap'
p2367
(dp2368
g4
S''
sg6
I01
sg7
I00
sg8
(lp2369
I369
asg10
I01
ssS'deslogin'
p2370
(dp2371
g4
S'encrypted symmetric telnet/login'
p2372
sg6
I00
sg7
I00
sg8
(lp2373
I2005
aI3005
asg10
I01
ssS'pegboard'
p2374
(dp2375
g4
S'Electronic PegBoard'
p2376
sg6
I01
sg7
I00
sg8
(lp2377
I1357
asg10
I01
ssS'ulistserv'
p2378
(dp2379
g4
S'Unix Listserv'
p2380
sg6
I01
sg7
I00
sg8
(lp2381
I372
asg10
I01
ssS'nms'
p2382
(dp2383
g4
S'Hypercom NMS'
p2384
sg6
I01
sg7
I00
sg8
(lp2385
I1429
asg10
I01
ssS'biimenu'
p2386
(dp2387
g4
S'Beckman Instruments, Inc.'
p2388
sg6
I01
sg7
I00
sg8
(lp2389
I18000
asg10
I01
ssS'Trinoo_Bcast'
p2390
(dp2391
g4
S'Trinoo distributed attack tool Master'
p2392
sg6
I01
sg7
I00
sg8
(lp2393
I27444
asg10
I00
ssS'confluent'
p2394
(dp2395
g4
S'Confluent License Manager'
p2396
sg6
I01
sg7
I00
sg8
(lp2397
I1484
asg10
I01
ssS'netrcs'
p2398
(dp2399
g4
S'Network based Rev. Cont. Sys.'
p2400
sg6
I01
sg7
I00
sg8
(lp2401
I742
asg10
I01
ssS'audionews'
p2402
(dp2403
g4
S'Audio News Multicast'
p2404
sg6
I01
sg7
I00
sg8
(lp2405
I114
asg10
I01
ssS'dca'
p2406
(dp2407
g4
S''
sg6
I01
sg7
I00
sg8
(lp2408
I1456
asg10
I01
ssS'photuris'
p2409
(dp2410
g4
S'Photuris Key Management'
p2411
sg6
I01
sg7
I00
sg8
(lp2412
I468
asg10
I01
ssS'meetingmaker'
p2413
(dp2414
g4
S'Meeting maker time management software'
p2415
sg6
I00
sg7
I00
sg8
(lp2416
I3292
asg10
I01
ssS'skronk'
p2417
(dp2418
g4
S''
sg6
I01
sg7
I00
sg8
(lp2419
I460
asg10
I01
ssS'fatserv'
p2420
(dp2421
g4
S'Fatmen Server'
p2422
sg6
I01
sg7
I00
sg8
(lp2423
I347
asg10
I01
ssS'canna'
p2424
(dp2425
g4
S'Canna (Japanese Input)'
p2426
sg6
I00
sg7
I00
sg8
(lp2427
I5680
asg10
I01
ssS'dcs'
p2428
(dp2429
g4
S''
sg6
I01
sg7
I00
sg8
(lp2430
I1367
asg10
I01
ssS'dcp'
p2431
(dp2432
g4
S'Device Control Protocol'
p2433
sg6
I01
sg7
I00
sg8
(lp2434
I93
asg10
I01
ssS'videotex'
p2435
(dp2436
g4
S''
sg6
I01
sg7
I00
sg8
(lp2437
I516
asg10
I01
ssS'src'
p2438
(dp2439
g4
S'IBM System Resource Controller'
p2440
sg6
I01
sg7
I00
sg8
(lp2441
I200
asg10
I01
ssS'about'
p2442
(dp2443
g4
S''
sg6
I01
sg7
I00
sg8
(lp2444
I2019
asg10
I00
ssS'dbbrowse'
p2445
(dp2446
g4
S'Databeam Corporation'
p2447
sg6
I01
sg7
I00
sg8
(lp2448
I47557
asg10
I01
ssS'ajp13'
p2449
(dp2450
g4
S'Apache JServ Protocol 1.3'
p2451
sg6
I00
sg7
I00
sg8
(lp2452
I8009
asg10
I01
ssS'slnp'
p2453
(dp2454
g4
S'SLNP (Simple Library Network Protocol) by Sisis Informationssysteme GmbH'
p2455
sg6
I00
sg7
I00
sg8
(lp2456
I3025
aI3045
aI8076
asg10
I01
ssS'aci'
p2457
(dp2458
g4
S'Application Communication Interface'
p2459
sg6
I01
sg7
I00
sg8
(lp2460
I187
asg10
I01
ssS'sqlsrv'
p2461
(dp2462
g4
S'SQL Service'
p2463
sg6
I01
sg7
I00
sg8
(lp2464
I156
asg10
I01
ssS'smtps'
p2465
(dp2466
g4
S'smtp protocol over TLS/SSL (was ssmtp)'
p2467
sg6
I01
sg7
I00
sg8
(lp2468
I465
asg10
I01
ssS'bgp'
p2469
(dp2470
g4
S'Border Gateway Protocol'
p2471
sg6
I01
sg7
I00
sg8
(lp2472
I179
asg10
I01
ssS'svrloc'
p2473
(dp2474
g4
S'Server Location'
p2475
sg6
I01
sg7
I00
sg8
(lp2476
I427
asg10
I01
ssS'opsec_lea'
p2477
(dp2478
g4
S'Check Point OPSEC'
p2479
sg6
I00
sg7
I00
sg8
(lp2480
I18184
asg10
I01
ssS'acp'
p2481
(dp2482
g4
S'Aeolon Core Protocol'
p2483
sg6
I01
sg7
I00
sg8
(lp2484
I599
asg10
I01
ssS'nsiiops'
p2485
(dp2486
g4
S'iiop name service over tls/ssl'
p2487
sg6
I01
sg7
I00
sg8
(lp2488
I261
asg10
I01
ssS'radacct'
p2489
(dp2490
g4
S'radius accounting'
p2491
sg6
I01
sg7
I00
sg8
(lp2492
I1646
aI1813
asg10
I00
ssS'vnas'
p2493
(dp2494
g4
S''
sg6
I01
sg7
I00
sg8
(lp2495
I577
asg10
I01
ssS'discard'
p2496
(dp2497
g4
S'sink null'
p2498
sg6
I01
sg7
I00
sg8
(lp2499
I9
asg10
I01
ssS'prosharedata'
p2500
(dp2501
g4
S'proshare conf data'
p2502
sg6
I01
sg7
I00
sg8
(lp2503
I5715
asg10
I01
ssS'spsc'
p2504
(dp2505
g4
S''
sg6
I01
sg7
I00
sg8
(lp2506
I478
asg10
I01
ssS'cvc_hostd'
p2507
(dp2508
g4
S''
sg6
I01
sg7
I00
sg8
(lp2509
I442
asg10
I01
ssS'L2TP'
p2510
(dp2511
g4
S''
sg6
I01
sg7
I00
sg8
(lp2512
I1701
asg10
I00
ssS'mosmig'
p2513
(dp2514
g4
S'OpenMOSix MIGrates local processes'
p2515
sg6
I00
sg7
I00
sg8
(lp2516
I4660
asg10
I01
ssS'qrh'
p2517
(dp2518
g4
S''
sg6
I01
sg7
I00
sg8
(lp2519
I752
asg10
I01
ssS'prosharenotify'
p2520
(dp2521
g4
S'proshare conf notify'
p2522
sg6
I01
sg7
I00
sg8
(lp2523
I5717
asg10
I01
ssS'socks'
p2524
(dp2525
g4
S''
sg6
I01
sg7
I00
sg8
(lp2526
I1080
asg10
I01
ssS'down'
p2527
(dp2528
g4
S''
sg6
I00
sg7
I00
sg8
(lp2529
I2022
asg10
I01
ssS'snmptrap'
p2530
(dp2531
g4
S'snmp-trap'
p2532
sg6
I01
sg7
I00
sg8
(lp2533
I162
asg10
I01
ssS'ppp'
p2534
(dp2535
g4
S'User-level ppp daemon, or chili!soft asp'
p2536
sg6
I00
sg7
I00
sg8
(lp2537
I3000
asg10
I01
ssS'hotline'
p2538
(dp2539
g4
S''
sg6
I00
sg7
I00
sg8
(lp2540
I1234
aI5500
asg10
I01
ssS'rsvp_tunnel'
p2541
(dp2542
g4
S''
sg6
I01
sg7
I00
sg8
(lp2543
I363
asg10
I01
ssS'nuts_bootp'
p2544
(dp2545
g4
S'NUTS Bootp Server'
p2546
sg6
I01
sg7
I00
sg8
(lp2547
I4133
asg10
I01
ssS'sapcomm'
p2548
(dp2549
g4
S'SAPcomm'
p2550
sg6
I00
sg7
I00
sg8
(lp2551
I3398
asg10
I01
ssS'funkproxy'
p2552
(dp2553
g4
S'Funk Software, Inc.'
p2554
sg6
I01
sg7
I00
sg8
(lp2555
I1505
asg10
I01
ssS'support'
p2556
(dp2557
g4
S'prmsd gnatsd\t# cygnus bug tracker'
p2558
sg6
I00
sg7
I00
sg8
(lp2559
I1529
asg10
I01
ssS'rcp'
p2560
(dp2561
g4
S'Radio Control Protocol'
p2562
sg6
I01
sg7
I00
sg8
(lp2563
I469
asg10
I01
ssS'kuang2'
p2564
(dp2565
g4
S'Kuang2 backdoor'
p2566
sg6
I00
sg7
I00
sg8
(lp2567
I17300
asg10
I01
ssS'submit'
p2568
(dp2569
g4
S''
sg6
I00
sg7
I00
sg8
(lp2570
I773
asg10
I01
ssS'device2'
p2571
(dp2572
g4
S''
sg6
I01
sg7
I00
sg8
(lp2573
I2030
asg10
I01
ssS'dsfgw'
p2574
(dp2575
g4
S''
sg6
I01
sg7
I00
sg8
(lp2576
I438
asg10
I01
ssS'iiimsf'
p2577
(dp2578
g4
S'Internet/Intranet Input Method Server Framework'
p2579
sg6
I00
sg7
I00
sg8
(lp2580
I50000
aI50002
asg10
I01
ssS'vat'
p2581
(dp2582
g4
S'VAT default data'
p2583
sg6
I00
sg7
I00
sg8
(lp2584
I3456
asg10
I01
ssS'statsrv'
p2585
(dp2586
g4
S'Statistics Service'
p2587
sg6
I01
sg7
I00
sg8
(lp2588
I133
asg10
I01
ssS'linx'
p2589
(dp2590
g4
S''
sg6
I01
sg7
I00
sg8
(lp2591
I1361
asg10
I01
ssS'codaauth2'
p2592
(dp2593
g4
S''
sg6
I01
sg7
I00
sg8
(lp2594
I370
asg10
I01
ssS'ttyinfo'
p2595
(dp2596
g4
S''
sg6
I00
sg7
I00
sg8
(lp2597
I2012
asg10
I01
ssS'sqlserv'
p2598
(dp2599
g4
S'SQL Services'
p2600
sg6
I01
sg7
I00
sg8
(lp2601
I118
asg10
I01
ssS'rje'
p2602
(dp2603
g4
S'Remote Job Entry'
p2604
sg6
I01
sg7
I00
sg8
(lp2605
I5
asg10
I01
ssS'link'
p2606
(dp2607
g4
S''
sg6
I01
sg7
I00
sg8
(lp2608
I245
asg10
I01
ssS'cycleserv2'
p2609
(dp2610
g4
S''
sg6
I01
sg7
I00
sg8
(lp2611
I772
asg10
I01
ssS'mptn'
p2612
(dp2613
g4
S'Multi Protocol Trans. Net.'
p2614
sg6
I01
sg7
I00
sg8
(lp2615
I397
asg10
I01
ssS'tcpnethaspsrv'
p2616
(dp2617
g4
S''
sg6
I01
sg7
I00
sg8
(lp2618
I475
asg10
I01
ssS'quotad'
p2619
(dp2620
g4
S''
sg6
I01
sg7
I00
sg8
(lp2621
I762
asg10
I01
ssS'arns'
p2622
(dp2623
g4
S'A Remote Network Server System'
p2624
sg6
I01
sg7
I00
sg8
(lp2625
I384
asg10
I01
ssS'isis'
p2626
(dp2627
g4
S''
sg6
I01
sg7
I00
sg8
(lp2628
I2042
asg10
I01
ssS'osxwebadmin'
p2629
(dp2630
g4
S'Apple OS X WebAdmin'
p2631
sg6
I00
sg7
I00
sg8
(lp2632
I16080
asg10
I01
ssS'nuts_dem'
p2633
(dp2634
g4
S'NUTS Daemon'
p2635
sg6
I01
sg7
I00
sg8
(lp2636
I4132
asg10
I01
ssS'rmonitor'
p2637
(dp2638
g4
S'rmonitord'
p2639
sg6
I01
sg7
I00
sg8
(lp2640
I560
asg10
I01
ssS'vsinet'
p2641
(dp2642
g4
S''
sg6
I01
sg7
I00
sg8
(lp2643
I996
asg10
I00
ssS'sgmp'
p2644
(dp2645
g4
S''
sg6
I01
sg7
I00
sg8
(lp2646
I153
asg10
I01
ssS'klogin'
p2647
(dp2648
g4
S'Kerberos (v4/v5)'
p2649
sg6
I01
sg7
I00
sg8
(lp2650
I543
asg10
I01
ssS'anet'
p2651
(dp2652
g4
S'ATEXSSTR'
p2653
sg6
I01
sg7
I00
sg8
(lp2654
I212
asg10
I01
ssS'hassle'
p2655
(dp2656
g4
S''
sg6
I01
sg7
I00
sg8
(lp2657
I375
asg10
I01
ssS'isqlplus'
p2658
(dp2659
g4
S'Oracle web enabled SQL interface (version 10g+)'
p2660
sg6
I00
sg7
I00
sg8
(lp2661
I5560
asg10
I01
ssS'pirp'
p2662
(dp2663
g4
S''
sg6
I01
sg7
I00
sg8
(lp2664
I553
asg10
I01
ssS'admdog'
p2665
(dp2666
g4
S'(chili!soft asp)'
p2667
sg6
I00
sg7
I00
sg8
(lp2668
I5101
asg10
I01
ssS'cdfunc'
p2669
(dp2670
g4
S''
sg6
I01
sg7
I00
sg8
(lp2671
I2045
asg10
I01
ssS'isdninfo'
p2672
(dp2673
g4
S'isdninfo'
p2674
sg6
I00
sg7
I00
sg8
(lp2675
I6105
aI6106
asg10
I01
ssS'mailq'
p2676
(dp2677
g4
S''
sg6
I01
sg7
I00
sg8
(lp2678
I174
asg10
I01
ssS'netstat'
p2679
(dp2680
g4
S''
sg6
I00
sg7
I00
sg8
(lp2681
I15
asg10
I01
ssS'af'
p2682
(dp2683
g4
S'AudioFile'
p2684
sg6
I01
sg7
I00
sg8
(lp2685
I1411
asg10
I01
ssS'deslogind'
p2686
(dp2687
g4
S''
sg6
I00
sg7
I00
sg8
(lp2688
I3006
asg10
I01
ssS'lsnr'
p2689
(dp2690
g4
S'Oracle DB listener'
p2691
sg6
I00
sg7
I00
sg8
(lp2692
I1158
asg10
I01
ssS'ldapssl'
p2693
(dp2694
g4
S'LDAP over SSL'
p2695
sg6
I00
sg7
I00
sg8
(lp2696
I636
asg10
I01
ssS'nerv'
p2697
(dp2698
g4
S'SNI R&D network'
p2699
sg6
I01
sg7
I00
sg8
(lp2700
I1222
asg10
I01
ssS'umeter'
p2701
(dp2702
g4
S'udemon'
p2703
sg6
I01
sg7
I00
sg8
(lp2704
I571
asg10
I01
ssS'pip'
p2705
(dp2706
g4
S''
sg6
I01
sg7
I00
sg8
(lp2707
I321
asg10
I01
ssS'nkd'
p2708
(dp2709
g4
S''
sg6
I01
sg7
I00
sg8
(lp2710
I1650
asg10
I01
ssS'tlisrv'
p2711
(dp2712
g4
S'oracle'
p2713
sg6
I01
sg7
I00
sg8
(lp2714
I1527
asg10
I01
ssS'wnn6'
p2715
(dp2716
g4
S'Wnn6 (Japanese input)'
p2717
sg6
I00
sg7
I00
sg8
(lp2718
I22273
asg10
I01
ssS'abyss'
p2719
(dp2720
g4
S'Abyss web server remote web management interface'
p2721
sg6
I00
sg7
I00
sg8
(lp2722
I9999
asg10
I01
ssS'vpac'
p2723
(dp2724
g4
S'Virtual Places Audio control'
p2725
sg6
I01
sg7
I00
sg8
(lp2726
I1517
asg10
I01
ssS'uucp'
p2727
(dp2728
g4
S'uucpd'
p2729
sg6
I01
sg7
I00
sg8
(lp2730
I540
asg10
I01
ssS'vpad'
p2731
(dp2732
g4
S'Virtual Places Audio data'
p2733
sg6
I01
sg7
I00
sg8
(lp2734
I1516
asg10
I01
ssS'ss7ns'
p2735
(dp2736
g4
S''
sg6
I01
sg7
I00
sg8
(lp2737
I477
asg10
I01
ssS'hybrid'
p2738
(dp2739
g4
S'Hybrid Encryption Protocol'
p2740
sg6
I01
sg7
I00
sg8
(lp2741
I1424
asg10
I01
ssS'srmp'
p2742
(dp2743
g4
S'Spider Remote Monitoring Protocol'
p2744
sg6
I01
sg7
I00
sg8
(lp2745
I193
asg10
I01
ssS'sybase'
p2746
(dp2747
g4
S'Sybase database'
p2748
sg6
I00
sg7
I00
sg8
(lp2749
I2638
asg10
I01
ssS'pehelp'
p2750
(dp2751
g4
S''
sg6
I01
sg7
I00
sg8
(lp2752
I2307
asg10
I01
ssS'passgo'
p2753
(dp2754
g4
S''
sg6
I01
sg7
I00
sg8
(lp2755
I511
asg10
I01
ssS'bmap'
p2756
(dp2757
g4
S'Bull Apprise portmapper'
p2758
sg6
I01
sg7
I00
sg8
(lp2759
I3421
asg10
I01
ssS'radmind'
p2760
(dp2761
g4
S'Radmind protocol'
p2762
sg6
I00
sg7
I00
sg8
(lp2763
I6222
aI6662
asg10
I01
ssS'subntbcst_tftp'
p2764
(dp2765
g4
S''
sg6
I01
sg7
I00
sg8
(lp2766
I247
asg10
I01
ssS'mortgageware'
p2767
(dp2768
g4
S''
sg6
I01
sg7
I00
sg8
(lp2769
I367
asg10
I01
ssS'ns'
p2770
(dp2771
g4
S''
sg6
I01
sg7
I00
sg8
(lp2772
I760
asg10
I00
ssS'ulpnet'
p2773
(dp2774
g4
S''
sg6
I01
sg7
I00
sg8
(lp2775
I483
asg10
I01
ssS'xaudio'
p2776
(dp2777
g4
S'Xaserver\t# X Audio Server'
p2778
sg6
I00
sg7
I00
sg8
(lp2779
I1103
asg10
I01
ssS'omserv'
p2780
(dp2781
g4
S''
sg6
I01
sg7
I00
sg8
(lp2782
I764
asg10
I01
ssS'iad2'
p2783
(dp2784
g4
S'BBN IAD'
p2785
sg6
I01
sg7
I00
sg8
(lp2786
I1031
asg10
I01
ssS'iad3'
p2787
(dp2788
g4
S'BBN IAD'
p2789
sg6
I01
sg7
I00
sg8
(lp2790
I1032
asg10
I01
ssS'iad1'
p2791
(dp2792
g4
S'BBN IAD'
p2793
sg6
I01
sg7
I00
sg8
(lp2794
I1030
asg10
I01
ssS'opsec_ela'
p2795
(dp2796
g4
S'Check Point OPSEC'
p2797
sg6
I00
sg7
I00
sg8
(lp2798
I18187
asg10
I01
ssS'mfcobol'
p2799
(dp2800
g4
S'Micro Focus Cobol'
p2801
sg6
I01
sg7
I00
sg8
(lp2802
I86
asg10
I01
ssS'servexec'
p2803
(dp2804
g4
S''
sg6
I00
sg7
I00
sg8
(lp2805
I2021
asg10
I01
ssS'activesync'
p2806
(dp2807
g4
S'Microsoft ActiveSync PDY synchronization'
p2808
sg6
I00
sg7
I00
sg8
(lp2809
I5679
asg10
I01
ssS'accessbuilder'
p2810
(dp2811
g4
S'or Audio CD Database'
p2812
sg6
I01
sg7
I00
sg8
(lp2813
I888
asg10
I01
ssS'entrustmanager'
p2814
(dp2815
g4
S'EntrustManager - NorTel DES auth network see 389/tcp'
p2816
sg6
I01
sg7
I00
sg8
(lp2817
I709
asg10
I01
ssS'pop3pw'
p2818
(dp2819
g4
S'Eudora compatible PW changer'
p2820
sg6
I00
sg7
I00
sg8
(lp2821
I106
asg10
I01
ssS'onmux'
p2822
(dp2823
g4
S'Meeting maker'
p2824
sg6
I01
sg7
I00
sg8
(lp2825
I417
asg10
I01
ssS'loadsrv'
p2826
(dp2827
g4
S''
sg6
I00
sg7
I00
sg8
(lp2828
I480
asg10
I01
ssS'wnn6_DS'
p2829
(dp2830
g4
S'Wnn6 (Dserver)'
p2831
sg6
I00
sg7
I00
sg8
(lp2832
I26208
asg10
I01
ssS'vemmi'
p2833
(dp2834
g4
S''
sg6
I01
sg7
I00
sg8
(lp2835
I575
asg10
I01
ssS'netmap_lm'
p2836
(dp2837
g4
S''
sg6
I01
sg7
I00
sg8
(lp2838
I1493
asg10
I01
ssS'nms_topo_serv'
p2839
(dp2840
g4
S''
sg6
I01
sg7
I00
sg8
(lp2841
I1486
asg10
I01
ssS'ipcd'
p2842
(dp2843
g4
S''
sg6
I01
sg7
I00
sg8
(lp2844
I576
asg10
I01
ssS'hdap'
p2845
(dp2846
g4
S''
sg6
I01
sg7
I00
sg8
(lp2847
I263
asg10
I01
ssS'rxe'
p2848
(dp2849
g4
S''
sg6
I01
sg7
I00
sg8
(lp2850
I761
asg10
I00
ssS'sftp'
p2851
(dp2852
g4
S'Simple File Transfer Protocol'
p2853
sg6
I01
sg7
I00
sg8
(lp2854
I115
asg10
I01
ssS'time'
p2855
(dp2856
g4
S'timserver'
p2857
sg6
I01
sg7
I00
sg8
(lp2858
I37
asg10
I01
ssS'oracle'
p2859
(dp2860
g4
S'Oracle Database'
p2861
sg6
I01
sg7
I00
sg8
(lp2862
I1521
aI2005
asg10
I01
ssS'bgpd'
p2863
(dp2864
g4
S'BGPd vty'
p2865
sg6
I00
sg7
I00
sg8
(lp2866
I2605
asg10
I01
ssS'dvs'
p2867
(dp2868
g4
S''
sg6
I00
sg7
I00
sg8
(lp2869
I481
asg10
I01
ssS'wpgs'
p2870
(dp2871
g4
S''
sg6
I01
sg7
I00
sg8
(lp2872
I780
asg10
I01
ss.